(dp1
S'kaistset08-V001-I00629'
p2
(lp3
(dp4
S'name'
p5
S'person'
p6
sS'bbox'
p7
(lp8
I468
aI206
aI500
aI282
asS'difficult'
p9
I0
sa(dp10
g5
S'person'
p11
sg7
(lp12
I66
aI202
aI96
aI263
asg9
I0
sasS'kaistset08-V002-I00959'
p13
(lp14
(dp15
g5
S'person'
p16
sg7
(lp17
I283
aI217
aI320
aI300
asg9
I0
sasS'kaistset08-V001-I02759'
p18
(lp19
(dp20
g5
S'person'
p21
sg7
(lp22
I79
aI218
aI115
aI290
asg9
I0
sa(dp23
g5
S'person'
p24
sg7
(lp25
I453
aI226
aI543
aI374
asg9
I0
sa(dp26
g5
S'person'
p27
sg7
(lp28
I204
aI226
aI234
aI281
asg9
I0
sa(dp29
g5
S'person'
p30
sg7
(lp31
I98
aI219
aI137
aI296
asg9
I0
sa(dp32
g5
S'person'
p33
sg7
(lp34
I241
aI220
aI280
aI281
asg9
I0
sasS'kaistset08-V001-I02699'
p35
(lp36
(dp37
g5
S'person'
p38
sg7
(lp39
I45
aI221
aI75
aI291
asg9
I0
sa(dp40
g5
S'person'
p41
sg7
(lp42
I80
aI213
aI113
aI290
asg9
I0
sa(dp43
g5
S'person'
p44
sg7
(lp45
I535
aI223
aI585
aI350
asg9
I0
sa(dp46
g5
S'person'
p47
sg7
(lp48
I118
aI220
aI167
aI303
asg9
I0
sa(dp49
g5
S'person'
p50
sg7
(lp51
I198
aI218
aI270
aI363
asg9
I0
sa(dp52
g5
S'person'
p53
sg7
(lp54
I453
aI235
aI549
aI381
asg9
I0
sa(dp55
g5
S'person'
p56
sg7
(lp57
I60
aI217
aI159
aI379
asg9
I0
sa(dp58
g5
S'person'
p59
sg7
(lp60
I305
aI232
aI335
aI287
asg9
I0
sa(dp61
g5
S'person'
p62
sg7
(lp63
I153
aI221
aI192
aI310
asg9
I0
sa(dp64
g5
S'person'
p65
sg7
(lp66
I427
aI222
aI466
aI283
asg9
I0
sasS'kaistset08-V002-I00899'
p67
(lp68
(dp69
g5
S'person'
p70
sg7
(lp71
I214
aI217
aI240
aI270
asg9
I0
sasS'kaistset11-V000-I00179'
p72
(lp73
(dp74
g5
S'person'
p75
sg7
(lp76
I483
aI227
aI520
aI369
asg9
I0
sa(dp77
g5
S'person'
p78
sg7
(lp79
I400
aI239
aI426
aI316
asg9
I0
sa(dp80
g5
S'person'
p81
sg7
(lp82
I433
aI234
aI458
aI311
asg9
I0
sa(dp83
g5
S'person'
p84
sg7
(lp85
I103
aI222
aI132
aI320
asg9
I0
sa(dp86
g5
S'person'
p87
sg7
(lp88
I132
aI225
aI167
aI318
asg9
I0
sa(dp89
g5
S'person'
p90
sg7
(lp91
I555
aI247
aI590
aI364
asg9
I0
sasS'kaistset10-V000-I03509'
p92
(lp93
(dp94
g5
S'person'
p95
sg7
(lp96
I410
aI205
aI438
aI278
asg9
I0
sa(dp97
g5
S'person'
p98
sg7
(lp99
I373
aI205
aI401
aI271
asg9
I0
sasS'kaistset08-V002-I01079'
p100
(lp101
(dp102
g5
S'person'
p103
sg7
(lp104
I525
aI220
aI573
aI322
asg9
I0
sa(dp105
g5
S'person'
p106
sg7
(lp107
I514
aI207
aI563
aI319
asg9
I0
sa(dp108
g5
S'person'
p109
sg7
(lp110
I343
aI215
aI388
aI296
asg9
I0
sa(dp111
g5
S'person'
p112
sg7
(lp113
I337
aI216
aI380
aI299
asg9
I0
sa(dp114
g5
S'person'
p115
sg7
(lp116
I279
aI208
aI313
aI264
asg9
I0
sa(dp117
g5
S'person'
p118
sg7
(lp119
I267
aI205
aI301
aI267
asg9
I0
sasS'kaistset06-V000-I00569'
p120
(lp121
(dp122
g5
S'person'
p123
sg7
(lp124
I223
aI213
aI255
aI276
asg9
I0
sasS'kaistset08-V002-I00179'
p125
(lp126
(dp127
g5
S'person'
p128
sg7
(lp129
I577
aI199
aI609
aI267
asg9
I0
sasS'kaistset06-V001-I02609'
p130
(lp131
(dp132
g5
S'person'
p133
sg7
(lp134
I524
aI194
aI555
aI245
asg9
I0
sasS'kaistset08-V001-I00239'
p135
(lp136
(dp137
g5
S'person'
p138
sg7
(lp139
I506
aI203
aI537
aI283
asg9
I0
sasS'kaistset06-V003-I01379'
p140
(lp141
(dp142
g5
S'person'
p143
sg7
(lp144
I564
aI226
aI594
aI295
asg9
I0
sa(dp145
g5
S'person'
p146
sg7
(lp147
I595
aI220
aI615
aI299
asg9
I0
sasS'kaistset11-V000-I01319'
p148
(lp149
(dp150
g5
S'person'
p151
sg7
(lp152
I509
aI241
aI556
aI377
asg9
I0
sa(dp153
g5
S'person'
p154
sg7
(lp155
I409
aI226
aI444
aI332
asg9
I0
sa(dp156
g5
S'person'
p157
sg7
(lp158
I379
aI231
aI406
aI326
asg9
I0
sa(dp159
g5
S'person'
p160
sg7
(lp161
I526
aI236
aI554
aI366
asg9
I0
sasS'kaistset06-V001-I00089'
p162
(lp163
(dp164
g5
S'person'
p165
sg7
(lp166
I538
aI219
aI565
aI286
asg9
I0
sasS'kaistset07-V001-I03779'
p167
(lp168
(dp169
g5
S'person'
p170
sg7
(lp171
I393
aI207
aI426
aI266
asg9
I0
sasS'kaistset08-V000-I00839'
p172
(lp173
(dp174
g5
S'person'
p175
sg7
(lp176
I35
aI210
aI123
aI428
asg9
I0
sa(dp177
g5
S'person'
p178
sg7
(lp179
I463
aI224
aI508
aI354
asg9
I0
sa(dp180
g5
S'person'
p181
sg7
(lp182
I212
aI196
aI250
aI300
asg9
I0
sa(dp183
g5
S'person'
p184
sg7
(lp185
I182
aI201
aI210
aI297
asg9
I0
sa(dp186
g5
S'person'
p187
sg7
(lp188
I257
aI198
aI296
aI304
asg9
I0
sa(dp189
g5
S'person'
p190
sg7
(lp191
I341
aI208
aI374
aI288
asg9
I0
sasS'kaistset07-V001-I01559'
p192
(lp193
(dp194
g5
S'person'
p195
sg7
(lp196
I457
aI228
aI497
aI296
asg9
I0
sasS'kaistset06-V002-I01259'
p197
(lp198
(dp199
g5
S'person'
p200
sg7
(lp201
I132
aI204
aI159
aI265
asg9
I0
sasS'kaistset08-V000-I02069'
p202
(lp203
(dp204
g5
S'person'
p205
sg7
(lp206
I294
aI203
aI324
aI289
asg9
I0
sa(dp207
g5
S'person'
p208
sg7
(lp209
I313
aI216
aI339
aI284
asg9
I0
sa(dp210
g5
S'person'
p211
sg7
(lp212
I398
aI211
aI443
aI326
asg9
I0
sasS'kaistset06-V001-I00029'
p213
(lp214
(dp215
g5
S'person'
p216
sg7
(lp217
I555
aI225
aI597
aI325
asg9
I0
sasS'kaistset06-V002-I00659'
p218
(lp219
(dp220
g5
S'person'
p221
sg7
(lp222
I466
aI201
aI522
aI328
asg9
I0
sasS'kaistset09-V000-I00179'
p223
(lp224
(dp225
g5
S'person'
p226
sg7
(lp227
I161
aI213
aI214
aI323
asg9
I0
sasS'kaistset07-V000-I02069'
p228
(lp229
(dp230
g5
S'person'
p231
sg7
(lp232
I613
aI207
aI640
aI318
asg9
I0
sasS'kaistset08-V002-I01979'
p233
(lp234
(dp235
g5
S'person'
p236
sg7
(lp237
I54
aI209
aI99
aI286
asg9
I0
sa(dp238
g5
S'person'
p239
sg7
(lp240
I35
aI206
aI76
aI283
asg9
I0
sasS'kaistset08-V000-I01619'
p241
(lp242
(dp243
g5
S'person'
p244
sg7
(lp245
I308
aI213
aI352
aI334
asg9
I0
sa(dp246
g5
S'person'
p247
sg7
(lp248
I351
aI217
aI398
aI341
asg9
I0
sa(dp249
g5
S'person'
p250
sg7
(lp251
I334
aI215
aI364
aI335
asg9
I0
sasS'kaistset06-V001-I02579'
p252
(lp253
(dp254
g5
S'person'
p255
sg7
(lp256
I254
aI204
aI286
aI255
asg9
I0
sasS'kaistset08-V002-I01469'
p257
(lp258
(dp259
g5
S'person'
p260
sg7
(lp261
I457
aI216
aI490
aI291
asg9
I0
sasS'kaistset11-V000-I01859'
p262
(lp263
(dp264
g5
S'person'
p265
sg7
(lp266
I248
aI243
aI281
aI328
asg9
I0
sa(dp267
g5
S'person'
p268
sg7
(lp269
I131
aI229
aI164
aI341
asg9
I0
sasS'kaistset08-V001-I02219'
p270
(lp271
(dp272
g5
S'person'
p273
sg7
(lp274
I598
aI217
aI632
aI297
asg9
I0
sasS'kaistset08-V002-I01379'
p275
(lp276
(dp277
g5
S'person'
p278
sg7
(lp279
I564
aI220
aI593
aI277
asg9
I0
sa(dp280
g5
S'person'
p281
sg7
(lp282
I243
aI212
aI276
aI277
asg9
I0
sasS'kaistset11-V000-I00899'
p283
(lp284
(dp285
g5
S'person'
p286
sg7
(lp287
I468
aI237
aI511
aI409
asg9
I0
sa(dp288
g5
S'person'
p289
sg7
(lp290
I414
aI229
aI456
aI412
asg9
I0
sa(dp291
g5
S'person'
p292
sg7
(lp293
I350
aI221
aI393
aI316
asg9
I0
sasS'kaistset08-V001-I02189'
p294
(lp295
(dp296
g5
S'person'
p297
sg7
(lp298
I598
aI217
aI632
aI297
asg9
I0
sasS'kaistset09-V000-I02549'
p299
(lp300
(dp301
g5
S'person'
p302
sg7
(lp303
I468
aI197
aI496
aI274
asg9
I0
sa(dp304
g5
S'person'
p305
sg7
(lp306
I495
aI194
aI524
aI284
asg9
I0
sasS'kaistset09-V000-I02579'
p307
(lp308
(dp309
g5
S'person'
p310
sg7
(lp311
I535
aI219
aI565
aI313
asg9
I0
sa(dp312
g5
S'person'
p313
sg7
(lp314
I584
aI211
aI614
aI317
asg9
I0
sasS'kaistset11-V000-I00209'
p315
(lp316
(dp317
g5
S'person'
p318
sg7
(lp319
I544
aI245
aI576
aI369
asg9
I0
sa(dp320
g5
S'person'
p321
sg7
(lp322
I578
aI249
aI611
aI358
asg9
I0
sa(dp323
g5
S'person'
p324
sg7
(lp325
I18
aI219
aI83
aI390
asg9
I0
sasS'kaistset06-V003-I03119'
p326
(lp327
(dp328
g5
S'person'
p329
sg7
(lp330
I190
aI210
aI260
aI411
asg9
I0
sasS'kaistset06-V003-I03509'
p331
(lp332
(dp333
g5
S'person'
p334
sg7
(lp335
I158
aI219
aI189
aI296
asg9
I0
sa(dp336
g5
S'person'
p337
sg7
(lp338
I43
aI215
aI63
aI267
asg9
I0
sa(dp339
g5
S'person'
p340
sg7
(lp341
I476
aI220
aI499
aI276
asg9
I0
sasS'kaistset11-V001-I00299'
p342
(lp343
(dp344
g5
S'person'
p345
sg7
(lp346
I381
aI203
aI407
aI259
asg9
I0
sasS'kaistset08-V002-I01109'
p347
(lp348
(dp349
g5
S'person'
p350
sg7
(lp351
I482
aI211
aI514
aI268
asg9
I0
sa(dp352
g5
S'person'
p353
sg7
(lp354
I465
aI205
aI495
aI271
asg9
I0
sa(dp355
g5
S'person'
p356
sg7
(lp357
I437
aI214
aI460
aI276
asg9
I0
sasS'kaistset11-V000-I00629'
p358
(lp359
(dp360
g5
S'person'
p361
sg7
(lp362
I481
aI238
aI536
aI388
asg9
I0
sa(dp363
g5
S'person'
p364
sg7
(lp365
I470
aI247
aI519
aI386
asg9
I0
sasS'kaistset10-V001-I04169'
p366
(lp367
(dp368
g5
S'person'
p369
sg7
(lp370
I566
aI221
aI588
aI286
asg9
I0
sa(dp371
g5
S'person'
p372
sg7
(lp373
I547
aI225
aI569
aI282
asg9
I0
sasS'kaistset11-V000-I00809'
p374
(lp375
(dp376
g5
S'person'
p377
sg7
(lp378
I330
aI230
aI356
aI305
asg9
I0
sa(dp379
g5
S'person'
p380
sg7
(lp381
I269
aI216
aI302
aI266
asg9
I0
sasS'kaistset08-V002-I01199'
p382
(lp383
(dp384
g5
S'person'
p385
sg7
(lp386
I256
aI212
aI287
aI263
asg9
I0
sa(dp387
g5
S'person'
p388
sg7
(lp389
I267
aI212
aI292
aI263
asg9
I0
sa(dp390
g5
S'person'
p391
sg7
(lp392
I105
aI194
aI138
aI251
asg9
I0
sa(dp393
g5
S'person'
p394
sg7
(lp395
I77
aI202
aI105
aI256
asg9
I0
sasS'kaistset06-V003-I03479'
p396
(lp397
(dp398
g5
S'person'
p399
sg7
(lp400
I119
aI221
aI153
aI287
asg9
I0
sa(dp401
g5
S'person'
p402
sg7
(lp403
I275
aI212
aI301
aI273
asg9
I0
sasS'kaistset10-V001-I03329'
p404
(lp405
(dp406
g5
S'person'
p407
sg7
(lp408
I540
aI209
aI573
aI291
asg9
I0
sasS'kaistset10-V000-I03869'
p409
(lp410
(dp411
g5
S'person'
p412
sg7
(lp413
I456
aI210
aI477
aI261
asg9
I0
sasS'kaistset07-V001-I03359'
p414
(lp415
(dp416
g5
S'person'
p417
sg7
(lp418
I480
aI212
aI520
aI271
asg9
I0
sasS'kaistset09-V000-I02909'
p419
(lp420
(dp421
g5
S'person'
p422
sg7
(lp423
I616
aI218
aI639
aI300
asg9
I0
sasS'kaistset06-V003-I01559'
p424
(lp425
(dp426
g5
S'person'
p427
sg7
(lp428
I599
aI210
aI619
aI275
asg9
I0
sasS'kaistset11-V000-I01889'
p429
(lp430
(dp431
g5
S'person'
p432
sg7
(lp433
I139
aI233
aI187
aI363
asg9
I0
sa(dp434
g5
S'person'
p435
sg7
(lp436
I393
aI220
aI417
aI282
asg9
I0
sasS'kaistset10-V001-I00359'
p437
(lp438
(dp439
g5
S'person'
p440
sg7
(lp441
I537
aI211
aI557
aI266
asg9
I0
sa(dp442
g5
S'person'
p443
sg7
(lp444
I547
aI212
aI567
aI263
asg9
I0
sasS'kaistset09-V000-I00959'
p445
(lp446
(dp447
g5
S'person'
p448
sg7
(lp449
I274
aI217
aI315
aI334
asg9
I0
sa(dp450
g5
S'person'
p451
sg7
(lp452
I307
aI227
aI343
aI314
asg9
I0
sasS'kaistset11-V001-I00119'
p453
(lp454
(dp455
g5
S'person'
p456
sg7
(lp457
I395
aI223
aI427
aI283
asg9
I0
sasS'kaistset06-V000-I01139'
p458
(lp459
(dp460
g5
S'person'
p461
sg7
(lp462
I456
aI228
aI484
aI297
asg9
I0
sa(dp463
g5
S'person'
p464
sg7
(lp465
I488
aI226
aI513
aI300
asg9
I0
sasS'kaistset06-V003-I03599'
p466
(lp467
(dp468
g5
S'person'
p469
sg7
(lp470
I520
aI215
aI555
aI331
asg9
I0
sa(dp471
g5
S'person'
p472
sg7
(lp473
I580
aI219
aI606
aI318
asg9
I0
sa(dp474
g5
S'person'
p475
sg7
(lp476
I599
aI227
aI631
aI345
asg9
I0
sasS'kaistset09-V000-I03329'
p477
(lp478
(dp479
g5
S'person'
p480
sg7
(lp481
I572
aI223
aI592
aI285
asg9
I0
sasS'kaistset06-V004-I02009'
p482
(lp483
(dp484
g5
S'person'
p485
sg7
(lp486
I503
aI203
aI530
aI256
asg9
I0
sasS'kaistset06-V002-I01289'
p487
(lp488
(dp489
g5
S'person'
p490
sg7
(lp491
I115
aI206
aI143
aI269
asg9
I0
sa(dp492
g5
S'person'
p493
sg7
(lp494
I461
aI195
aI513
aI302
asg9
I0
sasS'kaistset09-V000-I01229'
p495
(lp496
(dp497
g5
S'person'
p498
sg7
(lp499
I538
aI239
aI611
aI415
asg9
I0
sa(dp500
g5
S'person'
p501
sg7
(lp502
I195
aI211
aI247
aI334
asg9
I0
sa(dp503
g5
S'person'
p504
sg7
(lp505
I242
aI223
aI297
aI347
asg9
I0
sasS'kaistset09-V000-I01949'
p506
(lp507
(dp508
g5
S'person'
p509
sg7
(lp510
I550
aI222
aI582
aI303
asg9
I0
sa(dp511
g5
S'person'
p512
sg7
(lp513
I578
aI221
aI610
aI309
asg9
I0
sasS'kaistset08-V002-I02039'
p514
(lp515
(dp516
g5
S'person'
p517
sg7
(lp518
I1
aI207
aI36
aI287
asg9
I0
sa(dp519
g5
S'person'
p520
sg7
(lp521
I572
aI216
aI619
aI336
asg9
I0
sa(dp522
g5
S'person'
p523
sg7
(lp524
I598
aI227
aI641
aI333
asg9
I0
sasS'kaistset11-V000-I01769'
p525
(lp526
(dp527
g5
S'person'
p528
sg7
(lp529
I505
aI222
aI540
aI384
asg9
I0
sa(dp530
g5
S'person'
p531
sg7
(lp532
I535
aI226
aI572
aI378
asg9
I0
sasS'kaistset07-V001-I01049'
p533
(lp534
(dp535
g5
S'person'
p536
sg7
(lp537
I597
aI196
aI629
aI257
asg9
I0
sasS'kaistset08-V000-I01469'
p538
(lp539
(dp540
g5
S'person'
p541
sg7
(lp542
I142
aI195
aI189
aI332
asg9
I0
sa(dp543
g5
S'person'
p544
sg7
(lp545
I397
aI215
aI431
aI304
asg9
I0
sa(dp546
g5
S'person'
p547
sg7
(lp548
I175
aI205
aI221
aI339
asg9
I0
sa(dp549
g5
S'person'
p550
sg7
(lp551
I308
aI203
aI328
aI260
asg9
I0
sasS'kaistset08-V002-I00359'
p552
(lp553
(dp554
g5
S'person'
p555
sg7
(lp556
I359
aI210
aI394
aI287
asg9
I0
sa(dp557
g5
S'person'
p558
sg7
(lp559
I257
aI222
aI288
aI298
asg9
I0
sa(dp560
g5
S'person'
p561
sg7
(lp562
I218
aI219
aI265
aI308
asg9
I0
sa(dp563
g5
S'person'
p564
sg7
(lp565
I79
aI214
aI127
aI297
asg9
I0
sa(dp566
g5
S'person'
p567
sg7
(lp568
I37
aI212
aI85
aI296
asg9
I0
sa(dp569
g5
S'person'
p570
sg7
(lp571
I84
aI218
aI117
aI289
asg9
I0
sa(dp572
g5
S'person'
p573
sg7
(lp574
I199
aI213
aI234
aI293
asg9
I0
sasS'kaistset06-V003-I03989'
p575
(lp576
(dp577
g5
S'person'
p578
sg7
(lp579
I314
aI219
aI337
aI278
asg9
I0
sasS'kaistset08-V002-I01559'
p580
(lp581
(dp582
g5
S'person'
p583
sg7
(lp584
I595
aI214
aI626
aI294
asg9
I0
sasS'kaistset08-V002-I01859'
p585
(lp586
(dp587
g5
S'person'
p588
sg7
(lp589
I7
aI203
aI70
aI319
asg9
I0
sa(dp590
g5
S'person'
p591
sg7
(lp592
I1
aI206
aI45
aI325
asg9
I0
sa(dp593
g5
S'person'
p594
sg7
(lp595
I598
aI219
aI623
aI285
asg9
I0
sasS'kaistset07-V002-I00599'
p596
(lp597
(dp598
g5
S'person'
p599
sg7
(lp600
I533
aI204
aI569
aI274
asg9
I0
sasS'kaistset06-V002-I01199'
p601
(lp602
(dp603
g5
S'person'
p604
sg7
(lp605
I447
aI206
aI488
aI285
asg9
I0
sa(dp606
g5
S'person'
p607
sg7
(lp608
I489
aI204
aI530
aI283
asg9
I0
sasS'kaistset10-V000-I00989'
p609
(lp610
(dp611
g5
S'person'
p612
sg7
(lp613
I562
aI219
aI607
aI351
asg9
I0
sasS'kaistset08-V001-I01619'
p614
(lp615
(dp616
g5
S'person'
p617
sg7
(lp618
I547
aI207
aI576
aI281
asg9
I0
sasS'kaistset10-V000-I01109'
p619
(lp620
(dp621
g5
S'person'
p622
sg7
(lp623
I469
aI217
aI499
aI294
asg9
I0
sa(dp624
g5
S'person'
p625
sg7
(lp626
I489
aI215
aI514
aI296
asg9
I0
sasS'kaistset06-V000-I00449'
p627
(lp628
(dp629
g5
S'person'
p630
sg7
(lp631
I482
aI217
aI507
aI276
asg9
I0
sasS'kaistset07-V002-I01439'
p632
(lp633
(dp634
g5
S'person'
p635
sg7
(lp636
I586
aI222
aI624
aI293
asg9
I0
sasS'kaistset08-V002-I01139'
p637
(lp638
(dp639
g5
S'person'
p640
sg7
(lp641
I550
aI203
aI580
aI270
asg9
I0
sa(dp642
g5
S'person'
p643
sg7
(lp644
I532
aI205
aI559
aI276
asg9
I0
sa(dp645
g5
S'person'
p646
sg7
(lp647
I581
aI210
aI626
aI294
asg9
I0
sa(dp648
g5
S'person'
p649
sg7
(lp650
I528
aI210
aI567
aI288
asg9
I0
sasS'kaistset08-V000-I00479'
p651
(lp652
(dp653
g5
S'person'
p654
sg7
(lp655
I496
aI218
aI551
aI368
asg9
I0
sasS'kaistset08-V000-I01589'
p656
(lp657
(dp658
g5
S'person'
p659
sg7
(lp660
I283
aI213
aI317
aI305
asg9
I0
sa(dp661
g5
S'person'
p662
sg7
(lp663
I302
aI214
aI339
aI307
asg9
I0
sasS'kaistset07-V000-I01679'
p664
(lp665
(dp666
g5
S'person'
p667
sg7
(lp668
I511
aI215
aI538
aI301
asg9
I0
sa(dp669
g5
S'person'
p670
sg7
(lp671
I565
aI209
aI606
aI316
asg9
I0
sa(dp672
g5
S'person'
p673
sg7
(lp674
I528
aI203
aI563
aI311
asg9
I0
sa(dp675
g5
S'person'
p676
sg7
(lp677
I485
aI217
aI516
aI306
asg9
I0
sasS'kaistset09-V000-I01979'
p678
(lp679
(dp680
g5
S'person'
p681
sg7
(lp682
I499
aI238
aI543
aI353
asg9
I0
sa(dp683
g5
S'person'
p684
sg7
(lp685
I536
aI211
aI584
aI345
asg9
I0
sasS'kaistset08-V002-I00329'
p686
(lp687
(dp688
g5
S'person'
p689
sg7
(lp690
I172
aI213
aI208
aI289
asg9
I0
sa(dp691
g5
S'person'
p692
sg7
(lp693
I385
aI206
aI422
aI281
asg9
I0
sa(dp694
g5
S'person'
p695
sg7
(lp696
I42
aI214
aI89
aI287
asg9
I0
sa(dp697
g5
S'person'
p698
sg7
(lp699
I200
aI220
aI234
aI290
asg9
I0
sa(dp700
g5
S'person'
p701
sg7
(lp702
I12
aI212
aI57
aI285
asg9
I0
sasS'kaistset08-V000-I00059'
p703
(lp704
(dp705
g5
S'person'
p706
sg7
(lp707
I342
aI212
aI377
aI274
asg9
I0
sasS'kaistset09-V000-I02129'
p708
(lp709
(dp710
g5
S'person'
p711
sg7
(lp712
I59
aI212
aI87
aI277
asg9
I0
sasS'kaistset08-V001-I02009'
p713
(lp714
(dp715
g5
S'person'
p716
sg7
(lp717
I598
aI217
aI632
aI297
asg9
I0
sasS'kaistset11-V000-I00569'
p718
(lp719
(dp720
g5
S'person'
p721
sg7
(lp722
I451
aI250
aI477
aI327
asg9
I0
sasS'kaistset08-V000-I01979'
p723
(lp724
(dp725
g5
S'person'
p726
sg7
(lp727
I318
aI205
aI349
aI272
asg9
I0
sa(dp728
g5
S'person'
p729
sg7
(lp730
I71
aI211
aI163
aI442
asg9
I0
sa(dp731
g5
S'person'
p732
sg7
(lp733
I8
aI210
aI83
aI455
asg9
I0
sa(dp734
g5
S'person'
p735
sg7
(lp736
I337
aI203
aI363
aI270
asg9
I0
sasS'kaistset06-V000-I00029'
p737
(lp738
(dp739
g5
S'person'
p740
sg7
(lp741
I520
aI224
aI540
aI274
asg9
I0
sasS'kaistset11-V000-I00029'
p742
(lp743
(dp744
g5
S'person'
p745
sg7
(lp746
I37
aI240
aI91
aI411
asg9
I0
sa(dp747
g5
S'person'
p748
sg7
(lp749
I443
aI234
aI468
aI309
asg9
I0
sa(dp750
g5
S'person'
p751
sg7
(lp752
I421
aI228
aI453
aI311
asg9
I0
sa(dp753
g5
S'person'
p754
sg7
(lp755
I223
aI231
aI243
aI287
asg9
I0
sa(dp756
g5
S'person'
p757
sg7
(lp758
I9
aI245
aI65
aI399
asg9
I0
sasS'kaistset10-V001-I01469'
p759
(lp760
(dp761
g5
S'person'
p762
sg7
(lp763
I534
aI228
aI597
aI395
asg9
I0
sasS'kaistset06-V003-I01349'
p764
(lp765
(dp766
g5
S'person'
p767
sg7
(lp768
I484
aI217
aI504
aI268
asg9
I0
sasS'kaistset08-V001-I01979'
p769
(lp770
(dp771
g5
S'person'
p772
sg7
(lp773
I598
aI217
aI632
aI297
asg9
I0
sasS'kaistset06-V000-I00389'
p774
(lp775
(dp776
g5
S'person'
p777
sg7
(lp778
I500
aI218
aI521
aI271
asg9
I0
sasS'kaistset11-V000-I00389'
p779
(lp780
(dp781
g5
S'person'
p782
sg7
(lp783
I138
aI219
aI170
aI299
asg9
I0
sasS'kaistset11-V000-I01349'
p784
(lp785
(dp786
g5
S'person'
p787
sg7
(lp788
I393
aI253
aI458
aI425
asg9
I0
sa(dp789
g5
S'person'
p790
sg7
(lp791
I329
aI235
aI371
aI366
asg9
I0
sa(dp792
g5
S'person'
p793
sg7
(lp794
I265
aI229
aI308
aI362
asg9
I0
sa(dp795
g5
S'person'
p796
sg7
(lp797
I396
aI226
aI445
aI410
asg9
I0
sasS'kaistset06-V001-I00599'
p798
(lp799
(dp800
g5
S'person'
p801
sg7
(lp802
I108
aI227
aI205
aI418
asg9
I0
sa(dp803
g5
S'person'
p804
sg7
(lp805
I156
aI226
aI212
aI327
asg9
I0
sa(dp806
g5
S'person'
p807
sg7
(lp808
I207
aI216
aI255
aI289
asg9
I0
sa(dp809
g5
S'person'
p810
sg7
(lp811
I268
aI215
aI306
aI286
asg9
I0
sasS'kaistset08-V001-I02369'
p812
(lp813
(dp814
g5
S'person'
p815
sg7
(lp816
I490
aI225
aI524
aI305
asg9
I0
sa(dp817
g5
S'person'
p818
sg7
(lp819
I563
aI215
aI597
aI313
asg9
I0
sasS'kaistset07-V002-I00239'
p820
(lp821
(dp822
g5
S'person'
p823
sg7
(lp824
I585
aI218
aI623
aI282
asg9
I0
sa(dp825
g5
S'person'
p826
sg7
(lp827
I534
aI218
aI573
aI284
asg9
I0
sa(dp828
g5
S'person'
p829
sg7
(lp830
I315
aI208
aI345
aI258
asg9
I0
sa(dp831
g5
S'person'
p832
sg7
(lp833
I459
aI220
aI484
aI270
asg9
I0
sasS'kaistset11-V000-I01949'
p834
(lp835
(dp836
g5
S'person'
p837
sg7
(lp838
I484
aI232
aI535
aI379
asg9
I0
sasS'kaistset06-V003-I01589'
p839
(lp840
(dp841
g5
S'person'
p842
sg7
(lp843
I605
aI223
aI627
aI282
asg9
I0
sasS'kaistset07-V002-I00899'
p844
(lp845
(dp846
g5
S'person'
p847
sg7
(lp848
I564
aI222
aI601
aI298
asg9
I0
sa(dp849
g5
S'person'
p850
sg7
(lp851
I585
aI220
aI616
aI297
asg9
I0
sa(dp852
g5
S'person'
p853
sg7
(lp854
I617
aI231
aI640
aI294
asg9
I0
sasS'kaistset11-V000-I00149'
p855
(lp856
(dp857
g5
S'person'
p858
sg7
(lp859
I5
aI232
aI62
aI373
asg9
I0
sa(dp860
g5
S'person'
p861
sg7
(lp862
I426
aI225
aI456
aI318
asg9
I0
sa(dp863
g5
S'person'
p864
sg7
(lp865
I354
aI230
aI377
aI281
asg9
I0
sa(dp866
g5
S'person'
p867
sg7
(lp868
I172
aI220
aI192
aI273
asg9
I0
sa(dp869
g5
S'person'
p870
sg7
(lp871
I191
aI225
aI212
aI277
asg9
I0
sa(dp872
g5
S'person'
p873
sg7
(lp874
I471
aI236
aI494
aI316
asg9
I0
sasS'kaistset11-V000-I00419'
p875
(lp876
(dp877
g5
S'person'
p878
sg7
(lp879
I99
aI228
aI131
aI280
asg9
I0
sasS'kaistset08-V002-I00149'
p880
(lp881
(dp882
g5
S'person'
p883
sg7
(lp884
I574
aI202
aI608
aI279
asg9
I0
sa(dp885
g5
S'person'
p886
sg7
(lp887
I547
aI207
aI572
aI273
asg9
I0
sasS'kaistset07-V002-I00809'
p888
(lp889
(dp890
g5
S'person'
p891
sg7
(lp892
I604
aI216
aI629
aI266
asg9
I0
sa(dp893
g5
S'person'
p894
sg7
(lp895
I618
aI213
aI641
aI267
asg9
I0
sa(dp896
g5
S'person'
p897
sg7
(lp898
I525
aI214
aI554
aI271
asg9
I0
sasS'kaistset08-V000-I01379'
p899
(lp900
(dp901
g5
S'person'
p902
sg7
(lp903
I472
aI239
aI524
aI377
asg9
I0
sa(dp904
g5
S'person'
p905
sg7
(lp906
I219
aI205
aI248
aI276
asg9
I0
sasS'kaistset08-V001-I02099'
p907
(lp908
(dp909
g5
S'person'
p910
sg7
(lp911
I598
aI217
aI632
aI297
asg9
I0
sasS'kaistset06-V003-I00989'
p912
(lp913
(dp914
g5
S'person'
p915
sg7
(lp916
I563
aI216
aI588
aI280
asg9
I0
sasS'kaistset11-V001-I00239'
p917
(lp918
(dp919
g5
S'person'
p920
sg7
(lp921
I1
aI212
aI64
aI335
asg9
I0
sasS'kaistset08-V000-I02159'
p922
(lp923
(dp924
g5
S'person'
p925
sg7
(lp926
I60
aI230
aI137
aI452
asg9
I0
sa(dp927
g5
S'person'
p928
sg7
(lp929
I124
aI231
aI186
aI452
asg9
I0
sa(dp930
g5
S'person'
p931
sg7
(lp932
I477
aI233
aI505
aI288
asg9
I0
sasS'kaistset07-V001-I03179'
p933
(lp934
(dp935
g5
S'person'
p936
sg7
(lp937
I584
aI195
aI627
aI274
asg9
I0
sasS'kaistset07-V001-I01589'
p938
(lp939
(dp940
g5
S'person'
p941
sg7
(lp942
I606
aI234
aI640
aI343
asg9
I0
sasS'kaistset09-V000-I03299'
p943
(lp944
(dp945
g5
S'person'
p946
sg7
(lp947
I489
aI213
aI509
aI266
asg9
I0
sasS'kaistset06-V000-I01319'
p948
(lp949
(dp950
g5
S'person'
p951
sg7
(lp952
I420
aI205
aI440
aI255
asg9
I0
sasS'kaistset08-V000-I01259'
p953
(lp954
(dp955
g5
S'person'
p956
sg7
(lp957
I384
aI249
aI412
aI322
asg9
I0
sasS'kaistset06-V001-I00629'
p958
(lp959
(dp960
g5
S'person'
p961
sg7
(lp962
I54
aI206
aI106
aI293
asg9
I0
sasS'kaistset06-V003-I01049'
p963
(lp964
(dp965
g5
S'person'
p966
sg7
(lp967
I497
aI202
aI517
aI254
asg9
I0
sasS'kaistset06-V003-I00809'
p968
(lp969
(dp970
g5
S'person'
p971
sg7
(lp972
I589
aI189
aI619
aI275
asg9
I0
sasS'kaistset08-V002-I01889'
p973
(lp974
(dp975
g5
S'person'
p976
sg7
(lp977
I64
aI201
aI106
aI285
asg9
I0
sa(dp978
g5
S'person'
p979
sg7
(lp980
I521
aI215
aI544
aI270
asg9
I0
sa(dp981
g5
S'person'
p982
sg7
(lp983
I27
aI209
aI79
aI290
asg9
I0
sa(dp984
g5
S'person'
p985
sg7
(lp986
I528
aI223
aI556
aI279
asg9
I0
sa(dp987
g5
S'person'
p988
sg7
(lp989
I542
aI220
aI572
aI281
asg9
I0
sasS'kaistset06-V003-I00749'
p990
(lp991
(dp992
g5
S'person'
p993
sg7
(lp994
I431
aI214
aI452
aI265
asg9
I0
sasS'kaistset11-V001-I00899'
p995
(lp996
(dp997
g5
S'person'
p998
sg7
(lp999
I539
aI212
aI573
aI289
asg9
I0
sasS'kaistset11-V001-I00809'
p1000
(lp1001
(dp1002
g5
S'person'
p1003
sg7
(lp1004
I464
aI221
aI485
aI274
asg9
I0
sa(dp1005
g5
S'person'
p1006
sg7
(lp1007
I450
aI220
aI473
aI271
asg9
I0
sasS'kaistset10-V001-I04019'
p1008
(lp1009
(dp1010
g5
S'person'
p1011
sg7
(lp1012
I530
aI212
aI557
aI268
asg9
I0
sasS'kaistset07-V000-I01259'
p1013
(lp1014
(dp1015
g5
S'person'
p1016
sg7
(lp1017
I543
aI216
aI566
aI266
asg9
I0
sasS'kaistset08-V000-I02279'
p1018
(lp1019
(dp1020
g5
S'person'
p1021
sg7
(lp1022
I214
aI220
aI249
aI295
asg9
I0
sasS'kaistset08-V002-I02369'
p1023
(lp1024
(dp1025
g5
S'person'
p1026
sg7
(lp1027
I534
aI213
aI564
aI295
asg9
I0
sa(dp1028
g5
S'person'
p1029
sg7
(lp1030
I568
aI211
aI608
aI288
asg9
I0
sasS'kaistset08-V001-I02879'
p1031
(lp1032
(dp1033
g5
S'person'
p1034
sg7
(lp1035
I61
aI217
aI90
aI272
asg9
I0
sa(dp1036
g5
S'person'
p1037
sg7
(lp1038
I553
aI216
aI573
aI282
asg9
I0
sa(dp1039
g5
S'person'
p1040
sg7
(lp1041
I569
aI215
aI594
aI284
asg9
I0
sasS'kaistset08-V000-I02339'
p1042
(lp1043
(dp1044
g5
S'person'
p1045
sg7
(lp1046
I55
aI215
aI109
aI348
asg9
I0
sa(dp1047
g5
S'person'
p1048
sg7
(lp1049
I19
aI214
aI67
aI354
asg9
I0
sa(dp1050
g5
S'person'
p1051
sg7
(lp1052
I363
aI216
aI394
aI294
asg9
I0
sasS'kaistset08-V000-I00659'
p1053
(lp1054
(dp1055
g5
S'person'
p1056
sg7
(lp1057
I494
aI207
aI563
aI259
asg9
I0
sasS'kaistset06-V001-I02669'
p1058
(lp1059
(dp1060
g5
S'person'
p1061
sg7
(lp1062
I521
aI218
aI555
aI283
asg9
I0
sasS'kaistset10-V000-I01079'
p1063
(lp1064
(dp1065
g5
S'person'
p1066
sg7
(lp1067
I489
aI217
aI517
aI305
asg9
I0
sa(dp1068
g5
S'person'
p1069
sg7
(lp1070
I509
aI217
aI536
aI305
asg9
I0
sasS'kaistset06-V003-I02549'
p1071
(lp1072
(dp1073
g5
S'person'
p1074
sg7
(lp1075
I225
aI230
aI252
aI302
asg9
I0
sa(dp1076
g5
S'person'
p1077
sg7
(lp1078
I247
aI225
aI281
aI307
asg9
I0
sasS'kaistset08-V001-I01379'
p1079
(lp1080
(dp1081
g5
S'person'
p1082
sg7
(lp1083
I120
aI213
aI175
aI303
asg9
I0
sasS'kaistset11-V000-I00839'
p1084
(lp1085
(dp1086
g5
S'person'
p1087
sg7
(lp1088
I341
aI234
aI370
aI326
asg9
I0
sa(dp1089
g5
S'person'
p1090
sg7
(lp1091
I323
aI222
aI348
aI323
asg9
I0
sa(dp1092
g5
S'person'
p1093
sg7
(lp1094
I265
aI220
aI302
aI280
asg9
I0
sasS'kaistset09-V000-I01379'
p1095
(lp1096
(dp1097
g5
S'person'
p1098
sg7
(lp1099
I546
aI230
aI566
aI289
asg9
I0
sa(dp1100
g5
S'person'
p1101
sg7
(lp1102
I560
aI230
aI586
aI289
asg9
I0
sasS'kaistset08-V002-I00779'
p1103
(lp1104
(dp1105
g5
S'person'
p1106
sg7
(lp1107
I231
aI214
aI260
aI281
asg9
I0
sa(dp1108
g5
S'person'
p1109
sg7
(lp1110
I590
aI212
aI614
aI263
asg9
I0
sasS'kaistset09-V000-I02939'
p1111
(lp1112
(dp1113
g5
S'person'
p1114
sg7
(lp1115
I543
aI212
aI564
aI268
asg9
I0
sasS'kaistset08-V001-I01889'
p1116
(lp1117
(dp1118
g5
S'person'
p1119
sg7
(lp1120
I598
aI217
aI632
aI297
asg9
I0
sasS'kaistset08-V000-I00959'
p1121
(lp1122
(dp1123
g5
S'person'
p1124
sg7
(lp1125
I176
aI208
aI203
aI286
asg9
I0
sa(dp1126
g5
S'person'
p1127
sg7
(lp1128
I335
aI224
aI365
aI288
asg9
I0
sa(dp1129
g5
S'person'
p1130
sg7
(lp1131
I147
aI203
aI189
aI292
asg9
I0
sasS'kaistset09-V000-I03149'
p1132
(lp1133
(dp1134
g5
S'person'
p1135
sg7
(lp1136
I370
aI220
aI402
aI283
asg9
I0
sasS'kaistset08-V001-I02459'
p1137
(lp1138
(dp1139
g5
S'person'
p1140
sg7
(lp1141
I274
aI215
aI308
aI295
asg9
I0
sa(dp1142
g5
S'person'
p1143
sg7
(lp1144
I293
aI220
aI336
aI318
asg9
I0
sa(dp1145
g5
S'person'
p1146
sg7
(lp1147
I473
aI227
aI503
aI307
asg9
I0
sa(dp1148
g5
S'person'
p1149
sg7
(lp1150
I516
aI221
aI549
aI310
asg9
I0
sa(dp1151
g5
S'person'
p1152
sg7
(lp1153
I68
aI218
aI123
aI327
asg9
I0
sa(dp1154
g5
S'person'
p1155
sg7
(lp1156
I340
aI220
aI384
aI293
asg9
I0
sa(dp1157
g5
S'person'
p1158
sg7
(lp1159
I436
aI250
aI463
aI304
asg9
I0
sasS'kaistset09-V000-I01019'
p1160
(lp1161
(dp1162
g5
S'person'
p1163
sg7
(lp1164
I392
aI222
aI429
aI315
asg9
I0
sa(dp1165
g5
S'person'
p1166
sg7
(lp1167
I176
aI210
aI198
aI277
asg9
I0
sasS'kaistset06-V004-I01709'
p1168
(lp1169
(dp1170
g5
S'person'
p1171
sg7
(lp1172
I467
aI219
aI490
aI271
asg9
I0
sa(dp1173
g5
S'person'
p1174
sg7
(lp1175
I522
aI219
aI546
aI272
asg9
I0
sasS'kaistset06-V002-I00389'
p1176
(lp1177
(dp1178
g5
S'person'
p1179
sg7
(lp1180
I76
aI246
aI120
aI316
asg9
I0
sasS'kaistset08-V001-I02519'
p1181
(lp1182
(dp1183
g5
S'person'
p1184
sg7
(lp1185
I171
aI215
aI196
aI281
asg9
I0
sa(dp1186
g5
S'person'
p1187
sg7
(lp1188
I179
aI220
aI213
aI303
asg9
I0
sa(dp1189
g5
S'person'
p1190
sg7
(lp1191
I341
aI221
aI371
aI306
asg9
I0
sa(dp1192
g5
S'person'
p1193
sg7
(lp1194
I378
aI220
aI411
aI309
asg9
I0
sa(dp1195
g5
S'person'
p1196
sg7
(lp1197
I299
aI212
aI344
aI312
asg9
I0
sa(dp1198
g5
S'person'
p1199
sg7
(lp1200
I231
aI219
aI275
aI292
asg9
I0
sa(dp1201
g5
S'person'
p1202
sg7
(lp1203
I210
aI216
aI264
aI344
asg9
I0
sa(dp1204
g5
S'person'
p1205
sg7
(lp1206
I87
aI214
aI194
aI389
asg9
I0
sa(dp1207
g5
S'person'
p1208
sg7
(lp1209
I288
aI246
aI315
aI300
asg9
I0
sasS'kaistset11-V000-I01049'
p1210
(lp1211
(dp1212
g5
S'person'
p1213
sg7
(lp1214
I117
aI235
aI162
aI364
asg9
I0
sa(dp1215
g5
S'person'
p1216
sg7
(lp1217
I173
aI219
aI210
aI333
asg9
I0
sa(dp1218
g5
S'person'
p1219
sg7
(lp1220
I210
aI233
aI242
aI331
asg9
I0
sasS'kaistset06-V004-I01469'
p1221
(lp1222
(dp1223
g5
S'person'
p1224
sg7
(lp1225
I335
aI201
aI364
aI259
asg9
I0
sasS'kaistset06-V003-I02609'
p1226
(lp1227
(dp1228
g5
S'person'
p1229
sg7
(lp1230
I68
aI218
aI116
aI344
asg9
I0
sasS'kaistset08-V001-I01799'
p1231
(lp1232
(dp1233
g5
S'person'
p1234
sg7
(lp1235
I598
aI217
aI632
aI297
asg9
I0
sasS'kaistset10-V001-I02819'
p1236
(lp1237
(dp1238
g5
S'person'
p1239
sg7
(lp1240
I323
aI220
aI344
aI272
asg9
I0
sasS'kaistset11-V001-I00389'
p1241
(lp1242
(dp1243
g5
S'person'
p1244
sg7
(lp1245
I559
aI225
aI608
aI341
asg9
I0
sasS'kaistset07-V002-I01319'
p1246
(lp1247
(dp1248
g5
S'person'
p1249
sg7
(lp1250
I576
aI206
aI614
aI260
asg9
I0
sa(dp1251
g5
S'person'
p1252
sg7
(lp1253
I454
aI206
aI480
aI261
asg9
I0
sasS'kaistset08-V002-I01229'
p1254
(lp1255
(dp1256
g5
S'person'
p1257
sg7
(lp1258
I225
aI227
aI261
aI289
asg9
I0
sa(dp1259
g5
S'person'
p1260
sg7
(lp1261
I242
aI220
aI275
aI288
asg9
I0
sa(dp1262
g5
S'person'
p1263
sg7
(lp1264
I3
aI205
aI50
aI293
asg9
I0
sa(dp1265
g5
S'person'
p1266
sg7
(lp1267
I418
aI212
aI446
aI269
asg9
I0
sa(dp1268
g5
S'person'
p1269
sg7
(lp1270
I565
aI228
aI602
aI309
asg9
I0
sa(dp1271
g5
S'person'
p1272
sg7
(lp1273
I416
aI214
aI441
aI268
asg9
I0
sa(dp1274
g5
S'person'
p1275
sg7
(lp1276
I555
aI226
aI582
aI281
asg9
I0
sa(dp1277
g5
S'person'
p1278
sg7
(lp1279
I28
aI198
aI72
aI268
asg9
I0
sa(dp1280
g5
S'person'
p1281
sg7
(lp1282
I62
aI196
aI111
aI255
asg9
I0
sasS'kaistset08-V000-I00389'
p1283
(lp1284
(dp1285
g5
S'person'
p1286
sg7
(lp1287
I512
aI212
aI563
aI343
asg9
I0
sa(dp1288
g5
S'person'
p1289
sg7
(lp1290
I613
aI205
aI641
aI269
asg9
I0
sasS'kaistset06-V003-I02309'
p1291
(lp1292
(dp1293
g5
S'person'
p1294
sg7
(lp1295
I421
aI223
aI471
aI358
asg9
I0
sa(dp1296
g5
S'person'
p1297
sg7
(lp1298
I480
aI240
aI518
aI358
asg9
I0
sasS'kaistset08-V002-I01409'
p1299
(lp1300
(dp1301
g5
S'person'
p1302
sg7
(lp1303
I558
aI216
aI588
aI281
asg9
I0
sa(dp1304
g5
S'person'
p1305
sg7
(lp1306
I113
aI212
aI146
aI287
asg9
I0
sasS'kaistset06-V002-I01499'
p1307
(lp1308
(dp1309
g5
S'person'
p1310
sg7
(lp1311
I394
aI207
aI426
aI264
asg9
I0
sasS'kaistset08-V002-I00089'
p1312
(lp1313
(dp1314
g5
S'person'
p1315
sg7
(lp1316
I587
aI211
aI619
aI283
asg9
I0
sa(dp1317
g5
S'person'
p1318
sg7
(lp1319
I444
aI204
aI465
aI255
asg9
I0
sa(dp1320
g5
S'person'
p1321
sg7
(lp1322
I594
aI203
aI628
aI284
asg9
I0
sa(dp1323
g5
S'person'
p1324
sg7
(lp1325
I570
aI206
aI598
aI277
asg9
I0
sa(dp1326
g5
S'person'
p1327
sg7
(lp1328
I554
aI206
aI580
aI271
asg9
I0
sasS'kaistset06-V003-I01949'
p1329
(lp1330
(dp1331
g5
S'person'
p1332
sg7
(lp1333
I213
aI212
aI235
aI264
asg9
I0
sasS'kaistset11-V000-I01169'
p1334
(lp1335
(dp1336
g5
S'person'
p1337
sg7
(lp1338
I101
aI221
aI139
aI368
asg9
I0
sa(dp1339
g5
S'person'
p1340
sg7
(lp1341
I138
aI232
aI169
aI316
asg9
I0
sa(dp1342
g5
S'person'
p1343
sg7
(lp1344
I334
aI227
aI368
aI297
asg9
I0
sa(dp1345
g5
S'person'
p1346
sg7
(lp1347
I359
aI220
aI381
aI297
asg9
I0
sa(dp1348
g5
S'person'
p1349
sg7
(lp1350
I597
aI254
aI640
aI500
asg9
I0
sasS'kaistset06-V004-I00149'
p1351
(lp1352
(dp1353
g5
S'person'
p1354
sg7
(lp1355
I449
aI197
aI499
aI288
asg9
I0
sasS'kaistset08-V001-I00839'
p1356
(lp1357
(dp1358
g5
S'person'
p1359
sg7
(lp1360
I500
aI197
aI545
aI284
asg9
I0
sasS'kaistset06-V003-I00509'
p1361
(lp1362
(dp1363
g5
S'person'
p1364
sg7
(lp1365
I520
aI221
aI544
aI278
asg9
I0
sa(dp1366
g5
S'person'
p1367
sg7
(lp1368
I504
aI212
aI527
aI272
asg9
I0
sasS'kaistset07-V000-I00959'
p1369
(lp1370
(dp1371
g5
S'person'
p1372
sg7
(lp1373
I566
aI217
aI589
aI274
asg9
I0
sasS'kaistset10-V000-I01259'
p1374
(lp1375
(dp1376
g5
S'person'
p1377
sg7
(lp1378
I434
aI218
aI455
aI269
asg9
I0
sasS'kaistset08-V002-I01049'
p1379
(lp1380
(dp1381
g5
S'person'
p1382
sg7
(lp1383
I448
aI214
aI514
aI369
asg9
I0
sa(dp1384
g5
S'person'
p1385
sg7
(lp1386
I277
aI221
aI345
aI337
asg9
I0
sa(dp1387
g5
S'person'
p1388
sg7
(lp1389
I505
aI219
aI566
aI317
asg9
I0
sa(dp1390
g5
S'person'
p1391
sg7
(lp1392
I277
aI225
aI330
aI337
asg9
I0
sasS'kaistset06-V001-I00419'
p1393
(lp1394
(dp1395
g5
S'person'
p1396
sg7
(lp1397
I431
aI212
aI486
aI314
asg9
I0
sa(dp1398
g5
S'person'
p1399
sg7
(lp1400
I476
aI215
aI513
aI309
asg9
I0
sa(dp1401
g5
S'person'
p1402
sg7
(lp1403
I93
aI186
aI132
aI249
asg9
I0
sa(dp1404
g5
S'person'
p1405
sg7
(lp1406
I176
aI212
aI208
aI279
asg9
I0
sa(dp1407
g5
S'person'
p1408
sg7
(lp1409
I216
aI209
aI248
aI266
asg9
I0
sa(dp1410
g5
S'person'
p1411
sg7
(lp1412
I194
aI209
aI223
aI273
asg9
I0
sa(dp1413
g5
S'person'
p1414
sg7
(lp1415
I526
aI219
aI561
aI283
asg9
I0
sa(dp1416
g5
S'person'
p1417
sg7
(lp1418
I301
aI216
aI326
aI271
asg9
I0
sa(dp1419
g5
S'person'
p1420
sg7
(lp1421
I597
aI201
aI627
aI258
asg9
I0
sasS'kaistset06-V000-I00479'
p1422
(lp1423
(dp1424
g5
S'person'
p1425
sg7
(lp1426
I568
aI212
aI594
aI273
asg9
I0
sa(dp1427
g5
S'person'
p1428
sg7
(lp1429
I547
aI215
aI569
aI274
asg9
I0
sasS'kaistset08-V000-I01439'
p1430
(lp1431
(dp1432
g5
S'person'
p1433
sg7
(lp1434
I220
aI204
aI249
aI277
asg9
I0
sa(dp1435
g5
S'person'
p1436
sg7
(lp1437
I370
aI217
aI400
aI269
asg9
I0
sa(dp1438
g5
S'person'
p1439
sg7
(lp1440
I242
aI207
aI268
aI282
asg9
I0
sasS'kaistset08-V002-I01499'
p1441
(lp1442
(dp1443
g5
S'person'
p1444
sg7
(lp1445
I559
aI219
aI611
aI336
asg9
I0
sa(dp1446
g5
S'person'
p1447
sg7
(lp1448
I495
aI214
aI518
aI271
asg9
I0
sasS'kaistset08-V002-I00569'
p1449
(lp1450
(dp1451
g5
S'person'
p1452
sg7
(lp1453
I176
aI220
aI242
aI331
asg9
I0
sa(dp1454
g5
S'person'
p1455
sg7
(lp1456
I571
aI227
aI612
aI308
asg9
I0
sa(dp1457
g5
S'person'
p1458
sg7
(lp1459
I513
aI224
aI563
aI334
asg9
I0
sa(dp1460
g5
S'person'
p1461
sg7
(lp1462
I500
aI231
aI551
aI333
asg9
I0
sasS'kaistset09-V000-I01169'
p1463
(lp1464
(dp1465
g5
S'person'
p1466
sg7
(lp1467
I341
aI216
aI392
aI330
asg9
I0
sa(dp1468
g5
S'person'
p1469
sg7
(lp1470
I195
aI213
aI225
aI275
asg9
I0
sa(dp1471
g5
S'person'
p1472
sg7
(lp1473
I227
aI219
aI265
aI285
asg9
I0
sasS'kaistset07-V000-I02039'
p1474
(lp1475
(dp1476
g5
S'person'
p1477
sg7
(lp1478
I608
aI220
aI639
aI290
asg9
I0
sa(dp1479
g5
S'person'
p1480
sg7
(lp1481
I589
aI222
aI615
aI284
asg9
I0
sa(dp1482
g5
S'person'
p1483
sg7
(lp1484
I460
aI218
aI483
aI283
asg9
I0
sasS'kaistset06-V002-I01229'
p1485
(lp1486
(dp1487
g5
S'person'
p1488
sg7
(lp1489
I528
aI211
aI586
aI328
asg9
I0
sa(dp1490
g5
S'person'
p1491
sg7
(lp1492
I595
aI202
aI641
aI308
asg9
I0
sa(dp1493
g5
S'person'
p1494
sg7
(lp1495
I377
aI213
aI405
aI263
asg9
I0
sasS'kaistset08-V001-I02429'
p1496
(lp1497
(dp1498
g5
S'person'
p1499
sg7
(lp1500
I339
aI219
aI373
aI299
asg9
I0
sa(dp1501
g5
S'person'
p1502
sg7
(lp1503
I180
aI267
aI281
aI513
asg9
I0
sa(dp1504
g5
S'person'
p1505
sg7
(lp1506
I233
aI277
aI327
aI512
asg9
I0
sa(dp1507
g5
S'person'
p1508
sg7
(lp1509
I358
aI220
aI408
aI328
asg9
I0
sa(dp1510
g5
S'person'
p1511
sg7
(lp1512
I542
aI231
aI572
aI304
asg9
I0
sa(dp1513
g5
S'person'
p1514
sg7
(lp1515
I597
aI221
aI630
aI310
asg9
I0
sa(dp1516
g5
S'person'
p1517
sg7
(lp1518
I403
aI226
aI447
aI299
asg9
I0
sasS'kaistset11-V000-I01829'
p1519
(lp1520
(dp1521
g5
S'person'
p1522
sg7
(lp1523
I310
aI227
aI339
aI295
asg9
I0
sa(dp1524
g5
S'person'
p1525
sg7
(lp1526
I226
aI215
aI248
aI301
asg9
I0
sa(dp1527
g5
S'person'
p1528
sg7
(lp1529
I171
aI220
aI200
aI301
asg9
I0
sasS'kaistset06-V003-I00419'
p1530
(lp1531
(dp1532
g5
S'person'
p1533
sg7
(lp1534
I532
aI214
aI557
aI280
asg9
I0
sasS'kaistset11-V001-I01109'
p1535
(lp1536
(dp1537
g5
S'person'
p1538
sg7
(lp1539
I578
aI214
aI621
aI297
asg9
I0
sasS'kaistset11-V000-I01919'
p1540
(lp1541
(dp1542
g5
S'person'
p1543
sg7
(lp1544
I325
aI232
aI365
aI318
asg9
I0
sasS'kaistset10-V001-I01349'
p1545
(lp1546
(dp1547
g5
S'person'
p1548
sg7
(lp1549
I381
aI234
aI414
aI317
asg9
I0
sasS'kaistset06-V000-I00059'
p1550
(lp1551
(dp1552
g5
S'person'
p1553
sg7
(lp1554
I565
aI234
aI590
aI294
asg9
I0
sasS'kaistset10-V001-I01439'
p1555
(lp1556
(dp1557
g5
S'person'
p1558
sg7
(lp1559
I433
aI225
aI473
aI321
asg9
I0
sasS'kaistset06-V003-I00929'
p1560
(lp1561
(dp1562
g5
S'person'
p1563
sg7
(lp1564
I589
aI214
aI609
aI279
asg9
I0
sa(dp1565
g5
S'person'
p1566
sg7
(lp1567
I454
aI213
aI482
aI286
asg9
I0
sa(dp1568
g5
S'person'
p1569
sg7
(lp1570
I471
aI214
aI498
aI287
asg9
I0
sa(dp1571
g5
S'person'
p1572
sg7
(lp1573
I496
aI214
aI523
aI285
asg9
I0
sasS'kaistset08-V000-I01199'
p1574
(lp1575
(dp1576
g5
S'person'
p1577
sg7
(lp1578
I235
aI198
aI300
aI376
asg9
I0
sa(dp1579
g5
S'person'
p1580
sg7
(lp1581
I377
aI223
aI405
aI287
asg9
I0
sa(dp1582
g5
S'person'
p1583
sg7
(lp1584
I185
aI198
aI249
aI370
asg9
I0
sasS'kaistset07-V002-I00569'
p1585
(lp1586
(dp1587
g5
S'person'
p1588
sg7
(lp1589
I483
aI201
aI516
aI261
asg9
I0
sasS'kaistset08-V001-I02909'
p1590
(lp1591
(dp1592
g5
S'person'
p1593
sg7
(lp1594
I32
aI221
aI60
aI276
asg9
I0
sa(dp1595
g5
S'person'
p1596
sg7
(lp1597
I576
aI219
aI596
aI285
asg9
I0
sa(dp1598
g5
S'person'
p1599
sg7
(lp1600
I594
aI217
aI619
aI286
asg9
I0
sasS'kaistset06-V003-I00029'
p1601
(lp1602
(dp1603
g5
S'person'
p1604
sg7
(lp1605
I520
aI199
aI545
aI253
asg9
I0
sasS'kaistset08-V001-I02399'
p1606
(lp1607
(dp1608
g5
S'person'
p1609
sg7
(lp1610
I409
aI222
aI443
aI302
asg9
I0
sa(dp1611
g5
S'person'
p1612
sg7
(lp1613
I551
aI271
aI641
aI513
asg9
I0
sa(dp1614
g5
S'person'
p1615
sg7
(lp1616
I450
aI217
aI496
aI335
asg9
I0
sa(dp1617
g5
S'person'
p1618
sg7
(lp1619
I595
aI231
aI616
aI281
asg9
I0
sasS'kaistset07-V002-I00209'
p1620
(lp1621
(dp1622
g5
S'person'
p1623
sg7
(lp1624
I267
aI221
aI296
aI273
asg9
I0
sasS'kaistset08-V000-I02129'
p1625
(lp1626
(dp1627
g5
S'person'
p1628
sg7
(lp1629
I196
aI204
aI249
aI355
asg9
I0
sa(dp1630
g5
S'person'
p1631
sg7
(lp1632
I237
aI205
aI284
aI356
asg9
I0
sa(dp1633
g5
S'person'
p1634
sg7
(lp1635
I396
aI214
aI424
aI269
asg9
I0
sasS'kaistset08-V000-I01289'
p1636
(lp1637
(dp1638
g5
S'person'
p1639
sg7
(lp1640
I382
aI227
aI410
aI300
asg9
I0
sasS'kaistset07-V000-I00509'
p1641
(lp1642
(dp1643
g5
S'person'
p1644
sg7
(lp1645
I481
aI222
aI508
aI274
asg9
I0
sa(dp1646
g5
S'person'
p1647
sg7
(lp1648
I469
aI223
aI495
aI278
asg9
I0
sasS'kaistset11-V000-I00599'
p1649
(lp1650
(dp1651
g5
S'person'
p1652
sg7
(lp1653
I460
aI238
aI494
aI345
asg9
I0
sasS'kaistset06-V001-I02639'
p1654
(lp1655
(dp1656
g5
S'person'
p1657
sg7
(lp1658
I537
aI197
aI568
aI248
asg9
I0
sasS'kaistset11-V000-I01379'
p1659
(lp1660
(dp1661
g5
S'person'
p1662
sg7
(lp1663
I62
aI224
aI113
aI422
asg9
I0
sasS'kaistset08-V001-I02639'
p1664
(lp1665
(dp1666
g5
S'person'
p1667
sg7
(lp1668
I28
aI227
aI56
aI288
asg9
I0
sa(dp1669
g5
S'person'
p1670
sg7
(lp1671
I126
aI221
aI156
aI296
asg9
I0
sa(dp1672
g5
S'person'
p1673
sg7
(lp1674
I160
aI212
aI193
aI295
asg9
I0
sa(dp1675
g5
S'person'
p1676
sg7
(lp1677
I483
aI217
aI512
aI290
asg9
I0
sa(dp1678
g5
S'person'
p1679
sg7
(lp1680
I65
aI222
aI88
aI281
asg9
I0
sa(dp1681
g5
S'person'
p1682
sg7
(lp1683
I240
aI224
aI299
aI356
asg9
I0
sa(dp1684
g5
S'person'
p1685
sg7
(lp1686
I255
aI224
aI300
aI321
asg9
I0
sa(dp1687
g5
S'person'
p1688
sg7
(lp1689
I214
aI208
aI253
aI294
asg9
I0
sa(dp1690
g5
S'person'
p1691
sg7
(lp1692
I474
aI222
aI539
aI367
asg9
I0
sa(dp1693
g5
S'person'
p1694
sg7
(lp1695
I1
aI230
aI57
aI394
asg9
I0
sa(dp1696
g5
S'person'
p1697
sg7
(lp1698
I444
aI224
aI474
aI279
asg9
I0
sa(dp1699
g5
S'person'
p1700
sg7
(lp1701
I272
aI223
aI311
aI320
asg9
I0
sasS'kaistset11-V001-I00209'
p1702
(lp1703
(dp1704
g5
S'person'
p1705
sg7
(lp1706
I187
aI209
aI221
aI289
asg9
I0
sa(dp1707
g5
S'person'
p1708
sg7
(lp1709
I585
aI207
aI618
aI275
asg9
I0
sasS'kaistset08-V000-I01109'
p1710
(lp1711
(dp1712
g5
S'person'
p1713
sg7
(lp1714
I409
aI217
aI431
aI281
asg9
I0
sa(dp1715
g5
S'person'
p1716
sg7
(lp1717
I315
aI209
aI343
aI267
asg9
I0
sa(dp1718
g5
S'person'
p1719
sg7
(lp1720
I342
aI207
aI365
aI264
asg9
I0
sa(dp1721
g5
S'person'
p1722
sg7
(lp1723
I300
aI207
aI320
aI270
asg9
I0
sasS'kaistset08-V002-I01919'
p1724
(lp1725
(dp1726
g5
S'person'
p1727
sg7
(lp1728
I178
aI208
aI201
aI266
asg9
I0
sa(dp1729
g5
S'person'
p1730
sg7
(lp1731
I515
aI220
aI544
aI287
asg9
I0
sa(dp1732
g5
S'person'
p1733
sg7
(lp1734
I533
aI221
aI567
aI282
asg9
I0
sasS'kaistset11-V000-I00239'
p1735
(lp1736
(dp1737
g5
S'person'
p1738
sg7
(lp1739
I128
aI227
aI153
aI293
asg9
I0
sasS'kaistset06-V003-I01649'
p1740
(lp1741
(dp1742
g5
S'person'
p1743
sg7
(lp1744
I443
aI222
aI463
aI273
asg9
I0
sasS'kaistset08-V002-I01349'
p1745
(lp1746
(dp1747
g5
S'person'
p1748
sg7
(lp1749
I512
aI200
aI543
aI265
asg9
I0
sa(dp1750
g5
S'person'
p1751
sg7
(lp1752
I346
aI207
aI383
aI261
asg9
I0
sa(dp1753
g5
S'person'
p1754
sg7
(lp1755
I86
aI201
aI120
aI265
asg9
I0
sasS'kaistset06-V003-I01769'
p1756
(lp1757
(dp1758
g5
S'person'
p1759
sg7
(lp1760
I511
aI214
aI541
aI301
asg9
I0
sasS'kaistset08-V001-I01349'
p1761
(lp1762
(dp1763
g5
S'person'
p1764
sg7
(lp1765
I234
aI213
aI264
aI268
asg9
I0
sasS'kaistset06-V002-I01529'
p1766
(lp1767
(dp1768
g5
S'person'
p1769
sg7
(lp1770
I486
aI214
aI523
aI282
asg9
I0
sasS'kaistset06-V004-I00119'
p1771
(lp1772
(dp1773
g5
S'person'
p1774
sg7
(lp1775
I426
aI193
aI477
aI284
asg9
I0
sasS'kaistset11-V000-I01289'
p1776
(lp1777
(dp1778
g5
S'person'
p1779
sg7
(lp1780
I524
aI234
aI564
aI347
asg9
I0
sa(dp1781
g5
S'person'
p1782
sg7
(lp1783
I545
aI233
aI570
aI340
asg9
I0
sa(dp1784
g5
S'person'
p1785
sg7
(lp1786
I410
aI229
aI433
aI307
asg9
I0
sa(dp1787
g5
S'person'
p1788
sg7
(lp1789
I388
aI233
aI408
aI301
asg9
I0
sasS'kaistset08-V001-I02129'
p1790
(lp1791
(dp1792
g5
S'person'
p1793
sg7
(lp1794
I598
aI217
aI632
aI297
asg9
I0
sasS'kaistset11-V000-I01799'
p1795
(lp1796
(dp1797
g5
S'person'
p1798
sg7
(lp1799
I396
aI235
aI420
aI287
asg9
I0
sasS'kaistset08-V000-I02549'
p1800
(lp1801
(dp1802
g5
S'person'
p1803
sg7
(lp1804
I69
aI206
aI154
aI459
asg9
I0
sa(dp1805
g5
S'person'
p1806
sg7
(lp1807
I20
aI225
aI85
aI463
asg9
I0
sasS'kaistset06-V003-I01529'
p1808
(lp1809
(dp1810
g5
S'person'
p1811
sg7
(lp1812
I520
aI204
aI540
aI254
asg9
I0
sasS'kaistset06-V004-I01199'
p1813
(lp1814
(dp1815
g5
S'person'
p1816
sg7
(lp1817
I474
aI209
aI498
aI260
asg9
I0
sasS'kaistset06-V000-I00599'
p1818
(lp1819
(dp1820
g5
S'person'
p1821
sg7
(lp1822
I101
aI225
aI135
aI295
asg9
I0
sasS'kaistset07-V002-I00749'
p1823
(lp1824
(dp1825
g5
S'person'
p1826
sg7
(lp1827
I477
aI215
aI505
aI283
asg9
I0
sa(dp1828
g5
S'person'
p1829
sg7
(lp1830
I570
aI201
aI607
aI268
asg9
I0
sasS'kaistset06-V004-I01589'
p1831
(lp1832
(dp1833
g5
S'person'
p1834
sg7
(lp1835
I375
aI204
aI397
aI254
asg9
I0
sasS'kaistset06-V004-I02039'
p1836
(lp1837
(dp1838
g5
S'person'
p1839
sg7
(lp1840
I543
aI198
aI566
aI256
asg9
I0
sa(dp1841
g5
S'person'
p1842
sg7
(lp1843
I522
aI201
aI545
aI258
asg9
I0
sasS'kaistset11-V001-I00929'
p1844
(lp1845
(dp1846
g5
S'person'
p1847
sg7
(lp1848
I516
aI208
aI542
aI273
asg9
I0
sa(dp1849
g5
S'person'
p1850
sg7
(lp1851
I501
aI210
aI527
aI270
asg9
I0
sa(dp1852
g5
S'person'
p1853
sg7
(lp1854
I484
aI207
aI511
aI266
asg9
I0
sasS'kaistset08-V000-I00689'
p1855
(lp1856
(dp1857
g5
S'person'
p1858
sg7
(lp1859
I564
aI207
aI629
aI259
asg9
I0
sasS'kaistset08-V001-I01049'
p1860
(lp1861
(dp1862
g5
S'person'
p1863
sg7
(lp1864
I508
aI204
aI543
aI261
asg9
I0
sasS'kaistset11-V001-I00539'
p1865
(lp1866
(dp1867
g5
S'person'
p1868
sg7
(lp1869
I592
aI221
aI624
aI299
asg9
I0
sasS'kaistset09-V000-I00029'
p1870
(lp1871
(dp1872
g5
S'person'
p1873
sg7
(lp1874
I514
aI209
aI545
aI282
asg9
I0
sasS'kaistset09-V000-I02969'
p1875
(lp1876
(dp1877
g5
S'person'
p1878
sg7
(lp1879
I559
aI214
aI580
aI264
asg9
I0
sasS'kaistset08-V001-I01739'
p1880
(lp1881
(dp1882
g5
S'person'
p1883
sg7
(lp1884
I598
aI217
aI632
aI297
asg9
I0
sasS'kaistset10-V000-I04229'
p1885
(lp1886
(dp1887
g5
S'person'
p1888
sg7
(lp1889
I563
aI212
aI589
aI274
asg9
I0
sasS'kaistset09-V000-I01829'
p1890
(lp1891
(dp1892
g5
S'person'
p1893
sg7
(lp1894
I445
aI233
aI475
aI287
asg9
I0
sasS'kaistset06-V003-I01829'
p1895
(lp1896
(dp1897
g5
S'person'
p1898
sg7
(lp1899
I593
aI227
aI618
aI285
asg9
I0
sasS'kaistset08-V002-I01829'
p1900
(lp1901
(dp1902
g5
S'person'
p1903
sg7
(lp1904
I122
aI209
aI147
aI274
asg9
I0
sasS'kaistset11-V000-I02009'
p1905
(lp1906
(dp1907
g5
S'person'
p1908
sg7
(lp1909
I513
aI233
aI540
aI329
asg9
I0
sasS'kaistset06-V003-I01739'
p1910
(lp1911
(dp1912
g5
S'person'
p1913
sg7
(lp1914
I439
aI209
aI462
aI267
asg9
I0
sasS'kaistset08-V002-I00209'
p1915
(lp1916
(dp1917
g5
S'person'
p1918
sg7
(lp1919
I456
aI205
aI490
aI269
asg9
I0
sasS'kaistset10-V000-I03929'
p1920
(lp1921
(dp1922
g5
S'person'
p1923
sg7
(lp1924
I535
aI212
aI563
aI287
asg9
I0
sa(dp1925
g5
S'person'
p1926
sg7
(lp1927
I46
aI215
aI87
aI318
asg9
I0
sasS'kaistset07-V001-I01889'
p1928
(lp1929
(dp1930
g5
S'person'
p1931
sg7
(lp1932
I350
aI209
aI481
aI285
asg9
I0
sasS'kaistset06-V002-I01679'
p1933
(lp1934
(dp1935
g5
S'person'
p1936
sg7
(lp1937
I487
aI185
aI517
aI249
asg9
I0
sa(dp1938
g5
S'person'
p1939
sg7
(lp1940
I553
aI190
aI592
aI258
asg9
I0
sasS'kaistset08-V000-I02489'
p1941
(lp1942
(dp1943
g5
S'person'
p1944
sg7
(lp1945
I259
aI207
aI294
aI292
asg9
I0
sa(dp1946
g5
S'person'
p1947
sg7
(lp1948
I231
aI209
aI260
aI292
asg9
I0
sa(dp1949
g5
S'person'
p1950
sg7
(lp1951
I216
aI212
aI238
aI285
asg9
I0
sasS'kaistset10-V001-I02849'
p1952
(lp1953
(dp1954
g5
S'person'
p1955
sg7
(lp1956
I277
aI211
aI302
aI284
asg9
I0
sasS'kaistset09-V000-I01049'
p1957
(lp1958
(dp1959
g5
S'person'
p1960
sg7
(lp1961
I217
aI220
aI264
aI323
asg9
I0
sasS'kaistset06-V004-I01739'
p1962
(lp1963
(dp1964
g5
S'person'
p1965
sg7
(lp1966
I575
aI213
aI604
aI286
asg9
I0
sasS'kaistset08-V002-I00029'
p1967
(lp1968
(dp1969
g5
S'person'
p1970
sg7
(lp1971
I538
aI221
aI559
aI275
asg9
I0
sa(dp1972
g5
S'person'
p1973
sg7
(lp1974
I61
aI224
aI103
aI284
asg9
I0
sa(dp1975
g5
S'person'
p1976
sg7
(lp1977
I512
aI211
aI535
aI263
asg9
I0
sa(dp1978
g5
S'person'
p1979
sg7
(lp1980
I545
aI209
aI572
aI277
asg9
I0
sa(dp1981
g5
S'person'
p1982
sg7
(lp1983
I517
aI212
aI543
aI270
asg9
I0
sasS'kaistset08-V002-I00929'
p1984
(lp1985
(dp1986
g5
S'person'
p1987
sg7
(lp1988
I225
aI217
aI253
aI296
asg9
I0
sasS'kaistset11-V000-I00659'
p1989
(lp1990
(dp1991
g5
S'person'
p1992
sg7
(lp1993
I513
aI240
aI571
aI450
asg9
I0
sa(dp1994
g5
S'person'
p1995
sg7
(lp1996
I581
aI247
aI641
aI513
asg9
I0
sasS'kaistset08-V002-I00389'
p1997
(lp1998
(dp1999
g5
S'person'
p2000
sg7
(lp2001
I347
aI223
aI381
aI305
asg9
I0
sa(dp2002
g5
S'person'
p2003
sg7
(lp2004
I340
aI219
aI379
aI319
asg9
I0
sa(dp2005
g5
S'person'
p2006
sg7
(lp2007
I123
aI218
aI176
aI304
asg9
I0
sa(dp2008
g5
S'person'
p2009
sg7
(lp2010
I77
aI216
aI123
aI300
asg9
I0
sa(dp2011
g5
S'person'
p2012
sg7
(lp2013
I120
aI219
aI159
aI300
asg9
I0
sa(dp2014
g5
S'person'
p2015
sg7
(lp2016
I249
aI214
aI286
aI300
asg9
I0
sa(dp2017
g5
S'person'
p2018
sg7
(lp2019
I337
aI205
aI370
aI296
asg9
I0
sasS'kaistset10-V001-I02879'
p2020
(lp2021
(dp2022
g5
S'person'
p2023
sg7
(lp2024
I101
aI202
aI148
aI309
asg9
I0
sasS'kaistset08-V001-I01769'
p2025
(lp2026
(dp2027
g5
S'person'
p2028
sg7
(lp2029
I598
aI217
aI632
aI297
asg9
I0
sasS'kaistset08-V002-I00119'
p2030
(lp2031
(dp2032
g5
S'person'
p2033
sg7
(lp2034
I544
aI201
aI576
aI286
asg9
I0
sa(dp2035
g5
S'person'
p2036
sg7
(lp2037
I516
aI204
aI539
aI267
asg9
I0
sa(dp2038
g5
S'person'
p2039
sg7
(lp2040
I527
aI204
aI554
aI264
asg9
I0
sasS'kaistset07-V002-I01049'
p2041
(lp2042
(dp2043
g5
S'person'
p2044
sg7
(lp2045
I514
aI197
aI544
aI260
asg9
I0
sasS'kaistset08-V001-I00809'
p2046
(lp2047
(dp2048
g5
S'person'
p2049
sg7
(lp2050
I430
aI202
aI475
aI289
asg9
I0
sasS'kaistset08-V001-I00749'
p2051
(lp2052
(dp2053
g5
S'person'
p2054
sg7
(lp2055
I588
aI205
aI626
aI268
asg9
I0
sa(dp2056
g5
S'person'
p2057
sg7
(lp2058
I239
aI208
aI296
aI295
asg9
I0
sa(dp2059
g5
S'person'
p2060
sg7
(lp2061
I150
aI201
aI209
aI348
asg9
I0
sasS'kaistset10-V000-I01229'
p2062
(lp2063
(dp2064
g5
S'person'
p2065
sg7
(lp2066
I424
aI214
aI446
aI268
asg9
I0
sa(dp2067
g5
S'person'
p2068
sg7
(lp2069
I446
aI216
aI468
aI275
asg9
I0
sasS'kaistset06-V001-I00209'
p2070
(lp2071
(dp2072
g5
S'person'
p2073
sg7
(lp2074
I507
aI209
aI536
aI287
asg9
I0
sa(dp2075
g5
S'person'
p2076
sg7
(lp2077
I541
aI208
aI576
aI287
asg9
I0
sasS'kaistset08-V002-I01529'
p2078
(lp2079
(dp2080
g5
S'person'
p2081
sg7
(lp2082
I519
aI209
aI546
aI274
asg9
I0
sa(dp2083
g5
S'person'
p2084
sg7
(lp2085
I545
aI214
aI565
aI269
asg9
I0
sa(dp2086
g5
S'person'
p2087
sg7
(lp2088
I557
aI212
aI586
aI273
asg9
I0
sasS'kaistset08-V001-I02549'
p2089
(lp2090
(dp2091
g5
S'person'
p2092
sg7
(lp2093
I121
aI215
aI146
aI279
asg9
I0
sa(dp2094
g5
S'person'
p2095
sg7
(lp2096
I141
aI219
aI170
aI296
asg9
I0
sa(dp2097
g5
S'person'
p2098
sg7
(lp2099
I278
aI219
aI308
aI305
asg9
I0
sa(dp2100
g5
S'person'
p2101
sg7
(lp2102
I315
aI219
aI348
aI307
asg9
I0
sa(dp2103
g5
S'person'
p2104
sg7
(lp2105
I396
aI215
aI448
aI309
asg9
I0
sa(dp2106
g5
S'person'
p2107
sg7
(lp2108
I174
aI215
aI217
aI288
asg9
I0
sa(dp2109
g5
S'person'
p2110
sg7
(lp2111
I312
aI210
aI366
aI338
asg9
I0
sa(dp2112
g5
S'person'
p2113
sg7
(lp2114
I255
aI208
aI331
aI382
asg9
I0
sa(dp2115
g5
S'person'
p2116
sg7
(lp2117
I214
aI242
aI241
aI296
asg9
I0
sasS'kaistset11-V000-I01019'
p2118
(lp2119
(dp2120
g5
S'person'
p2121
sg7
(lp2122
I177
aI241
aI234
aI367
asg9
I0
sasS'kaistset08-V000-I00869'
p2123
(lp2124
(dp2125
g5
S'person'
p2126
sg7
(lp2127
I229
aI212
aI275
aI328
asg9
I0
sa(dp2128
g5
S'person'
p2129
sg7
(lp2130
I159
aI210
aI201
aI324
asg9
I0
sa(dp2131
g5
S'person'
p2132
sg7
(lp2133
I289
aI197
aI346
aI325
asg9
I0
sa(dp2134
g5
S'person'
p2135
sg7
(lp2136
I340
aI208
aI374
aI294
asg9
I0
sa(dp2137
g5
S'person'
p2138
sg7
(lp2139
I555
aI214
aI577
aI291
asg9
I0
sa(dp2140
g5
S'person'
p2141
sg7
(lp2142
I536
aI219
aI561
aI287
asg9
I0
sasS'kaistset11-V000-I00059'
p2143
(lp2144
(dp2145
g5
S'person'
p2146
sg7
(lp2147
I480
aI237
aI513
aI341
asg9
I0
sa(dp2148
g5
S'person'
p2149
sg7
(lp2150
I452
aI233
aI493
aI344
asg9
I0
sa(dp2151
g5
S'person'
p2152
sg7
(lp2153
I208
aI229
aI229
aI290
asg9
I0
sa(dp2154
g5
S'person'
p2155
sg7
(lp2156
I1
aI255
aI27
aI456
asg9
I0
sasS'kaistset08-V000-I01499'
p2157
(lp2158
(dp2159
g5
S'person'
p2160
sg7
(lp2161
I465
aI212
aI525
aI362
asg9
I0
sa(dp2162
g5
S'person'
p2163
sg7
(lp2164
I300
aI204
aI321
aI261
asg9
I0
sasS'kaistset08-V001-I01949'
p2165
(lp2166
(dp2167
g5
S'person'
p2168
sg7
(lp2169
I598
aI217
aI632
aI297
asg9
I0
sasS'kaistset06-V002-I01079'
p2170
(lp2171
(dp2172
g5
S'person'
p2173
sg7
(lp2174
I603
aI231
aI641
aI346
asg9
I0
sasS'kaistset07-V001-I03959'
p2175
(lp2176
(dp2177
g5
S'person'
p2178
sg7
(lp2179
I585
aI211
aI613
aI266
asg9
I0
sasS'kaistset08-V001-I02789'
p2180
(lp2181
(dp2182
g5
S'person'
p2183
sg7
(lp2184
I161
aI223
aI191
aI278
asg9
I0
sa(dp2185
g5
S'person'
p2186
sg7
(lp2187
I50
aI221
aI77
aI283
asg9
I0
sa(dp2188
g5
S'person'
p2189
sg7
(lp2190
I71
aI220
aI110
aI289
asg9
I0
sasS'kaistset08-V000-I01709'
p2191
(lp2192
(dp2193
g5
S'person'
p2194
sg7
(lp2195
I409
aI207
aI438
aI283
asg9
I0
sa(dp2196
g5
S'person'
p2197
sg7
(lp2198
I393
aI213
aI413
aI274
asg9
I0
sasS'kaistset08-V002-I01319'
p2199
(lp2200
(dp2201
g5
S'person'
p2202
sg7
(lp2203
I462
aI213
aI497
aI291
asg9
I0
sa(dp2204
g5
S'person'
p2205
sg7
(lp2206
I451
aI213
aI484
aI289
asg9
I0
sa(dp2207
g5
S'person'
p2208
sg7
(lp2209
I291
aI208
aI321
aI263
asg9
I0
sa(dp2210
g5
S'person'
p2211
sg7
(lp2212
I543
aI208
aI576
aI284
asg9
I0
sa(dp2213
g5
S'person'
p2214
sg7
(lp2215
I558
aI214
aI596
aI281
asg9
I0
sasS'kaistset07-V001-I01949'
p2216
(lp2217
(dp2218
g5
S'person'
p2219
sg7
(lp2220
I559
aI203
aI603
aI276
asg9
I0
sasS'kaistset07-V002-I01259'
p2221
(lp2222
(dp2223
g5
S'person'
p2224
sg7
(lp2225
I509
aI204
aI538
aI258
asg9
I0
sasS'kaistset06-V004-I01529'
p2226
(lp2227
(dp2228
g5
S'person'
p2229
sg7
(lp2230
I477
aI207
aI508
aI280
asg9
I0
sa(dp2231
g5
S'person'
p2232
sg7
(lp2233
I561
aI209
aI588
aI263
asg9
I0
sasS'kaistset08-V002-I00059'
p2234
(lp2235
(dp2236
g5
S'person'
p2237
sg7
(lp2238
I583
aI229
aI618
aI299
asg9
I0
sa(dp2239
g5
S'person'
p2240
sg7
(lp2241
I530
aI213
aI555
aI270
asg9
I0
sa(dp2242
g5
S'person'
p2243
sg7
(lp2244
I599
aI217
aI638
aI299
asg9
I0
sa(dp2245
g5
S'person'
p2246
sg7
(lp2247
I545
aI215
aI566
aI273
asg9
I0
sa(dp2248
g5
S'person'
p2249
sg7
(lp2250
I515
aI214
aI538
aI270
asg9
I0
sasS'kaistset07-V002-I00329'
p2251
(lp2252
(dp2253
g5
S'person'
p2254
sg7
(lp2255
I578
aI205
aI604
aI263
asg9
I0
sa(dp2256
g5
S'person'
p2257
sg7
(lp2258
I597
aI206
aI625
aI262
asg9
I0
sa(dp2259
g5
S'person'
p2260
sg7
(lp2261
I549
aI205
aI571
aI255
asg9
I0
sasS'kaistset10-V000-I03569'
p2262
(lp2263
(dp2264
g5
S'person'
p2265
sg7
(lp2266
I455
aI200
aI486
aI302
asg9
I0
sa(dp2267
g5
S'person'
p2268
sg7
(lp2269
I415
aI207
aI453
aI297
asg9
I0
sasS'kaistset10-V000-I03959'
p2270
(lp2271
(dp2272
g5
S'person'
p2273
sg7
(lp2274
I595
aI211
aI627
aI307
asg9
I0
sasS'kaistset08-V000-I02369'
p2275
(lp2276
(dp2277
g5
S'person'
p2278
sg7
(lp2279
I426
aI214
aI475
aI338
asg9
I0
sasS'kaistset08-V000-I01409'
p2280
(lp2281
(dp2282
g5
S'person'
p2283
sg7
(lp2284
I194
aI221
aI231
aI314
asg9
I0
sa(dp2285
g5
S'person'
p2286
sg7
(lp2287
I248
aI212
aI276
aI271
asg9
I0
sa(dp2288
g5
S'person'
p2289
sg7
(lp2290
I357
aI215
aI387
aI267
asg9
I0
sa(dp2291
g5
S'person'
p2292
sg7
(lp2293
I266
aI211
aI290
aI273
asg9
I0
sasS'kaistset08-V002-I00539'
p2294
(lp2295
(dp2296
g5
S'person'
p2297
sg7
(lp2298
I420
aI220
aI479
aI322
asg9
I0
sa(dp2299
g5
S'person'
p2300
sg7
(lp2301
I412
aI220
aI461
aI320
asg9
I0
sa(dp2302
g5
S'person'
p2303
sg7
(lp2304
I571
aI216
aI601
aI302
asg9
I0
sa(dp2305
g5
S'person'
p2306
sg7
(lp2307
I311
aI218
aI362
aI322
asg9
I0
sa(dp2308
g5
S'person'
p2309
sg7
(lp2310
I465
aI223
aI507
aI313
asg9
I0
sa(dp2311
g5
S'person'
p2312
sg7
(lp2313
I560
aI226
aI591
aI316
asg9
I0
sasS'kaistset08-V002-I01799'
p2314
(lp2315
(dp2316
g5
S'person'
p2317
sg7
(lp2318
I592
aI246
aI640
aI474
asg9
I0
sasS'kaistset08-V000-I01799'
p2319
(lp2320
(dp2321
g5
S'person'
p2322
sg7
(lp2323
I182
aI209
aI210
aI289
asg9
I0
sa(dp2324
g5
S'person'
p2325
sg7
(lp2326
I168
aI210
aI191
aI288
asg9
I0
sasS'kaistset11-V001-I00329'
p2327
(lp2328
(dp2329
g5
S'person'
p2330
sg7
(lp2331
I425
aI217
aI455
aI290
asg9
I0
sasS'kaistset08-V001-I02309'
p2332
(lp2333
(dp2334
g5
S'person'
p2335
sg7
(lp2336
I598
aI217
aI632
aI297
asg9
I0
sasS'kaistset10-V000-I01169'
p2337
(lp2338
(dp2339
g5
S'person'
p2340
sg7
(lp2341
I447
aI214
aI474
aI279
asg9
I0
sa(dp2342
g5
S'person'
p2343
sg7
(lp2344
I464
aI214
aI488
aI286
asg9
I0
sasS'kaistset10-V000-I03899'
p2345
(lp2346
(dp2347
g5
S'person'
p2348
sg7
(lp2349
I467
aI209
aI493
aI272
asg9
I0
sa(dp2350
g5
S'person'
p2351
sg7
(lp2352
I511
aI202
aI534
aI260
asg9
I0
sa(dp2353
g5
S'person'
p2354
sg7
(lp2355
I550
aI199
aI576
aI272
asg9
I0
sasS'kaistset08-V000-I01229'
p2356
(lp2357
(dp2358
g5
S'person'
p2359
sg7
(lp2360
I379
aI216
aI407
aI282
asg9
I0
sasS'kaistset06-V003-I01079'
p2361
(lp2362
(dp2363
g5
S'person'
p2364
sg7
(lp2365
I595
aI219
aI615
aI282
asg9
I0
sasS'kaistset10-V001-I00329'
p2366
(lp2367
(dp2368
g5
S'person'
p2369
sg7
(lp2370
I550
aI209
aI571
aI268
asg9
I0
sa(dp2371
g5
S'person'
p2372
sg7
(lp2373
I560
aI208
aI582
aI267
asg9
I0
sasS'kaistset11-V000-I01529'
p2374
(lp2375
(dp2376
g5
S'person'
p2377
sg7
(lp2378
I159
aI237
aI214
aI383
asg9
I0
sa(dp2379
g5
S'person'
p2380
sg7
(lp2381
I216
aI239
aI256
aI388
asg9
I0
sasS'kaistset10-V001-I04139'
p2382
(lp2383
(dp2384
g5
S'person'
p2385
sg7
(lp2386
I523
aI223
aI548
aI285
asg9
I0
sa(dp2387
g5
S'person'
p2388
sg7
(lp2389
I504
aI228
aI524
aI282
asg9
I0
sasS'kaistset06-V003-I00779'
p2390
(lp2391
(dp2392
g5
S'person'
p2393
sg7
(lp2394
I595
aI209
aI622
aI277
asg9
I0
sa(dp2395
g5
S'person'
p2396
sg7
(lp2397
I499
aI218
aI528
aI282
asg9
I0
sasS'kaistset08-V002-I01679'
p2398
(lp2399
(dp2400
g5
S'person'
p2401
sg7
(lp2402
I498
aI225
aI524
aI301
asg9
I0
sasS'kaistset11-V001-I00869'
p2403
(lp2404
(dp2405
g5
S'person'
p2406
sg7
(lp2407
I441
aI215
aI469
aI283
asg9
I0
sasS'kaistset08-V000-I02189'
p2408
(lp2409
(dp2410
g5
S'person'
p2411
sg7
(lp2412
I554
aI229
aI593
aI307
asg9
I0
sasS'kaistset08-V001-I02609'
p2413
(lp2414
(dp2415
g5
S'person'
p2416
sg7
(lp2417
I41
aI225
aI66
aI278
asg9
I0
sa(dp2418
g5
S'person'
p2419
sg7
(lp2420
I65
aI223
aI92
aI292
asg9
I0
sa(dp2421
g5
S'person'
p2422
sg7
(lp2423
I169
aI220
aI202
aI298
asg9
I0
sa(dp2424
g5
S'person'
p2425
sg7
(lp2426
I203
aI214
aI236
aI299
asg9
I0
sa(dp2427
g5
S'person'
p2428
sg7
(lp2429
I471
aI219
aI504
aI297
asg9
I0
sa(dp2430
g5
S'person'
p2431
sg7
(lp2432
I98
aI219
aI127
aI284
asg9
I0
sa(dp2433
g5
S'person'
p2434
sg7
(lp2435
I473
aI219
aI528
aI358
asg9
I0
sa(dp2436
g5
S'person'
p2437
sg7
(lp2438
I98
aI212
aI157
aI353
asg9
I0
sa(dp2439
g5
S'person'
p2440
sg7
(lp2441
I352
aI224
aI397
aI334
asg9
I0
sa(dp2442
g5
S'person'
p2443
sg7
(lp2444
I157
aI204
aI196
aI304
asg9
I0
sa(dp2445
g5
S'person'
p2446
sg7
(lp2447
I515
aI225
aI545
aI281
asg9
I0
sasS'kaistset08-V002-I01259'
p2448
(lp2449
(dp2450
g5
S'person'
p2451
sg7
(lp2452
I54
aI220
aI121
aI328
asg9
I0
sa(dp2453
g5
S'person'
p2454
sg7
(lp2455
I425
aI212
aI464
aI276
asg9
I0
sa(dp2456
g5
S'person'
p2457
sg7
(lp2458
I423
aI220
aI453
aI276
asg9
I0
sa(dp2459
g5
S'person'
p2460
sg7
(lp2461
I573
aI227
aI602
aI296
asg9
I0
sasS'kaistset08-V002-I01709'
p2462
(lp2463
(dp2464
g5
S'person'
p2465
sg7
(lp2466
I592
aI206
aI636
aI306
asg9
I0
sa(dp2467
g5
S'person'
p2468
sg7
(lp2469
I374
aI195
aI403
aI258
asg9
I0
sasS'kaistset11-V000-I01409'
p2470
(lp2471
(dp2472
g5
S'person'
p2473
sg7
(lp2474
I403
aI246
aI457
aI400
asg9
I0
sasS'kaistset10-V001-I03299'
p2475
(lp2476
(dp2477
g5
S'person'
p2478
sg7
(lp2479
I576
aI217
aI614
aI301
asg9
I0
sa(dp2480
g5
S'person'
p2481
sg7
(lp2482
I435
aI212
aI458
aI263
asg9
I0
sasS'kaistset11-V000-I00089'
p2483
(lp2484
(dp2485
g5
S'person'
p2486
sg7
(lp2487
I600
aI260
aI641
aI424
asg9
I0
sa(dp2488
g5
S'person'
p2489
sg7
(lp2490
I552
aI245
aI610
aI433
asg9
I0
sa(dp2491
g5
S'person'
p2492
sg7
(lp2493
I186
aI228
aI211
aI299
asg9
I0
sasS'kaistset10-V001-I01409'
p2494
(lp2495
(dp2496
g5
S'person'
p2497
sg7
(lp2498
I387
aI224
aI425
aI308
asg9
I0
sasS'kaistset11-V000-I00299'
p2499
(lp2500
(dp2501
g5
S'person'
p2502
sg7
(lp2503
I451
aI233
aI486
aI337
asg9
I0
sa(dp2504
g5
S'person'
p2505
sg7
(lp2506
I428
aI237
aI456
aI338
asg9
I0
sa(dp2507
g5
S'person'
p2508
sg7
(lp2509
I74
aI232
aI99
aI315
asg9
I0
sa(dp2510
g5
S'person'
p2511
sg7
(lp2512
I33
aI225
aI66
aI321
asg9
I0
sa(dp2513
g5
S'person'
p2514
sg7
(lp2515
I161
aI225
aI186
aI299
asg9
I0
sa(dp2516
g5
S'person'
p2517
sg7
(lp2518
I195
aI216
aI217
aI286
asg9
I0
sa(dp2519
g5
S'person'
p2520
sg7
(lp2521
I222
aI217
aI246
aI287
asg9
I0
sasS'kaistset11-V001-I01499'
p2522
(lp2523
(dp2524
g5
S'person'
p2525
sg7
(lp2526
I67
aI199
aI99
aI256
asg9
I0
sasS'kaistset06-V002-I00419'
p2527
(lp2528
(dp2529
g5
S'person'
p2530
sg7
(lp2531
I408
aI245
aI444
aI312
asg9
I0
sasS'kaistset10-V001-I03929'
p2532
(lp2533
(dp2534
g5
S'person'
p2535
sg7
(lp2536
I74
aI204
aI98
aI257
asg9
I0
sasS'kaistset08-V001-I02849'
p2537
(lp2538
(dp2539
g5
S'person'
p2540
sg7
(lp2541
I85
aI221
aI115
aI276
asg9
I0
sa(dp2542
g5
S'person'
p2543
sg7
(lp2544
I9
aI217
aI36
aI279
asg9
I0
sa(dp2545
g5
S'person'
p2546
sg7
(lp2547
I531
aI215
aI551
aI281
asg9
I0
sa(dp2548
g5
S'person'
p2549
sg7
(lp2550
I545
aI213
aI570
aI282
asg9
I0
sasS'kaistset10-V001-I01379'
p2551
(lp2552
(dp2553
g5
S'person'
p2554
sg7
(lp2555
I375
aI233
aI413
aI315
asg9
I0
sasS'kaistset08-V000-I01139'
p2556
(lp2557
(dp2558
g5
S'person'
p2559
sg7
(lp2560
I332
aI210
aI359
aI282
asg9
I0
sa(dp2561
g5
S'person'
p2562
sg7
(lp2563
I362
aI214
aI385
aI271
asg9
I0
sa(dp2564
g5
S'person'
p2565
sg7
(lp2566
I313
aI209
aI334
aI285
asg9
I0
sa(dp2567
g5
S'person'
p2568
sg7
(lp2569
I492
aI201
aI536
aI315
asg9
I0
sasS'kaistset09-V000-I00989'
p2570
(lp2571
(dp2572
g5
S'person'
p2573
sg7
(lp2574
I492
aI228
aI512
aI304
asg9
I0
sa(dp2575
g5
S'person'
p2576
sg7
(lp2577
I102
aI236
aI131
aI310
asg9
I0
sasS'kaistset11-V001-I00149'
p2578
(lp2579
(dp2580
g5
S'person'
p2581
sg7
(lp2582
I136
aI219
aI171
aI285
asg9
I0
sa(dp2583
g5
S'person'
p2584
sg7
(lp2585
I440
aI223
aI481
aI307
asg9
I0
sa(dp2586
g5
S'person'
p2587
sg7
(lp2588
I544
aI213
aI573
aI281
asg9
I0
sa(dp2589
g5
S'person'
p2590
sg7
(lp2591
I561
aI212
aI592
aI283
asg9
I0
sasS'kaistset06-V003-I02579'
p2592
(lp2593
(dp2594
g5
S'person'
p2595
sg7
(lp2596
I331
aI229
aI353
aI299
asg9
I0
sa(dp2597
g5
S'person'
p2598
sg7
(lp2599
I350
aI221
aI386
aI304
asg9
I0
sasS'kaistset06-V004-I01499'
p2600
(lp2601
(dp2602
g5
S'person'
p2603
sg7
(lp2604
I390
aI231
aI420
aI294
asg9
I0
sasS'kaistset08-V002-I02069'
p2605
(lp2606
(dp2607
g5
S'person'
p2608
sg7
(lp2609
I58
aI213
aI102
aI301
asg9
I0
sa(dp2610
g5
S'person'
p2611
sg7
(lp2612
I38
aI214
aI75
aI296
asg9
I0
sasS'kaistset06-V002-I00899'
p2613
(lp2614
(dp2615
g5
S'person'
p2616
sg7
(lp2617
I582
aI212
aI610
aI268
asg9
I0
sasS'kaistset06-V002-I01319'
p2618
(lp2619
(dp2620
g5
S'person'
p2621
sg7
(lp2622
I77
aI195
aI121
aI283
asg9
I0
sa(dp2623
g5
S'person'
p2624
sg7
(lp2625
I603
aI204
aI641
aI358
asg9
I0
sasS'kaistset08-V000-I02219'
p2626
(lp2627
(dp2628
g5
S'person'
p2629
sg7
(lp2630
I227
aI213
aI250
aI273
asg9
I0
sasS'kaistset09-V000-I02519'
p2631
(lp2632
(dp2633
g5
S'person'
p2634
sg7
(lp2635
I438
aI218
aI458
aI274
asg9
I0
sa(dp2636
g5
S'person'
p2637
sg7
(lp2638
I457
aI211
aI477
aI278
asg9
I0
sasS'kaistset06-V003-I01679'
p2639
(lp2640
(dp2641
g5
S'person'
p2642
sg7
(lp2643
I508
aI223
aI538
aI301
asg9
I0
sa(dp2644
g5
S'person'
p2645
sg7
(lp2646
I542
aI224
aI567
aI294
asg9
I0
sasS'kaistset08-V000-I00929'
p2647
(lp2648
(dp2649
g5
S'person'
p2650
sg7
(lp2651
I447
aI224
aI495
aI366
asg9
I0
sa(dp2652
g5
S'person'
p2653
sg7
(lp2654
I48
aI210
aI97
aI346
asg9
I0
sa(dp2655
g5
S'person'
p2656
sg7
(lp2657
I318
aI215
aI348
aI269
asg9
I0
sa(dp2658
g5
S'person'
p2659
sg7
(lp2660
I405
aI221
aI455
aI362
asg9
I0
sasS'kaistset07-V002-I00389'
p2661
(lp2662
(dp2663
g5
S'person'
p2664
sg7
(lp2665
I614
aI218
aI640
aI268
asg9
I0
sasS'kaistset11-V001-I00569'
p2666
(lp2667
(dp2668
g5
S'person'
p2669
sg7
(lp2670
I541
aI205
aI588
aI319
asg9
I0
sa(dp2671
g5
S'person'
p2672
sg7
(lp2673
I484
aI205
aI522
aI295
asg9
I0
sasS'kaistset10-V000-I01019'
p2674
(lp2675
(dp2676
g5
S'person'
p2677
sg7
(lp2678
I528
aI218
aI573
aI333
asg9
I0
sa(dp2679
g5
S'person'
p2680
sg7
(lp2681
I573
aI223
aI612
aI331
asg9
I0
sasS'kaistset06-V001-I00569'
p2682
(lp2683
(dp2684
g5
S'person'
p2685
sg7
(lp2686
I63
aI215
aI119
aI331
asg9
I0
sa(dp2687
g5
S'person'
p2688
sg7
(lp2689
I137
aI213
aI177
aI328
asg9
I0
sa(dp2690
g5
S'person'
p2691
sg7
(lp2692
I102
aI212
aI144
aI328
asg9
I0
sa(dp2693
g5
S'person'
p2694
sg7
(lp2695
I363
aI226
aI430
aI397
asg9
I0
sa(dp2696
g5
S'person'
p2697
sg7
(lp2698
I359
aI219
aI399
aI320
asg9
I0
sa(dp2699
g5
S'person'
p2700
sg7
(lp2701
I361
aI208
aI409
aI280
asg9
I0
sa(dp2702
g5
S'person'
p2703
sg7
(lp2704
I409
aI215
aI447
aI286
asg9
I0
sasS'kaistset06-V003-I01889'
p2705
(lp2706
(dp2707
g5
S'person'
p2708
sg7
(lp2709
I535
aI226
aI564
aI304
asg9
I0
sa(dp2710
g5
S'person'
p2711
sg7
(lp2712
I566
aI224
aI594
aI307
asg9
I0
sasS'kaistset10-V000-I03599'
p2713
(lp2714
(dp2715
g5
S'person'
p2716
sg7
(lp2717
I502
aI197
aI538
aI326
asg9
I0
sa(dp2718
g5
S'person'
p2719
sg7
(lp2720
I446
aI207
aI488
aI313
asg9
I0
sasS'kaistset08-V002-I00809'
p2721
(lp2722
(dp2723
g5
S'person'
p2724
sg7
(lp2725
I227
aI213
aI260
aI286
asg9
I0
sasS'kaistset07-V002-I01379'
p2726
(lp2727
(dp2728
g5
S'person'
p2729
sg7
(lp2730
I475
aI215
aI511
aI293
asg9
I0
sa(dp2731
g5
S'person'
p2732
sg7
(lp2733
I507
aI214
aI540
aI283
asg9
I0
sasS'kaistset08-V002-I02159'
p2734
(lp2735
(dp2736
g5
S'person'
p2737
sg7
(lp2738
I583
aI213
aI615
aI292
asg9
I0
sasS'kaistset08-V001-I01139'
p2739
(lp2740
(dp2741
g5
S'person'
p2742
sg7
(lp2743
I1
aI212
aI47
aI319
asg9
I0
sasS'kaistset06-V003-I02279'
p2744
(lp2745
(dp2746
g5
S'person'
p2747
sg7
(lp2748
I361
aI219
aI388
aI293
asg9
I0
sa(dp2749
g5
S'person'
p2750
sg7
(lp2751
I387
aI226
aI415
aI297
asg9
I0
sasS'kaistset06-V001-I00329'
p2752
(lp2753
(dp2754
g5
S'person'
p2755
sg7
(lp2756
I540
aI215
aI575
aI288
asg9
I0
sasS'kaistset11-V000-I01469'
p2757
(lp2758
(dp2759
g5
S'person'
p2760
sg7
(lp2761
I528
aI236
aI570
aI344
asg9
I0
sa(dp2762
g5
S'person'
p2763
sg7
(lp2764
I571
aI232
aI598
aI339
asg9
I0
sasS'kaistset10-V001-I02999'
p2765
(lp2766
(dp2767
g5
S'person'
p2768
sg7
(lp2769
I584
aI228
aI613
aI289
asg9
I0
sasS'kaistset07-V002-I00779'
p2770
(lp2771
(dp2772
g5
S'person'
p2773
sg7
(lp2774
I556
aI219
aI591
aI296
asg9
I0
sa(dp2775
g5
S'person'
p2776
sg7
(lp2777
I448
aI212
aI474
aI264
asg9
I0
sa(dp2778
g5
S'person'
p2779
sg7
(lp2780
I482
aI213
aI510
aI263
asg9
I0
sasS'kaistset06-V003-I00659'
p2781
(lp2782
(dp2783
g5
S'person'
p2784
sg7
(lp2785
I615
aI212
aI637
aI266
asg9
I0
sa(dp2786
g5
S'person'
p2787
sg7
(lp2788
I595
aI211
aI616
aI271
asg9
I0
sa(dp2789
g5
S'person'
p2790
sg7
(lp2791
I521
aI212
aI545
aI278
asg9
I0
sasS'kaistset06-V000-I00749'
p2792
(lp2793
(dp2794
g5
S'person'
p2795
sg7
(lp2796
I470
aI220
aI492
aI286
asg9
I0
sasS'kaistset08-V001-I01829'
p2797
(lp2798
(dp2799
g5
S'person'
p2800
sg7
(lp2801
I598
aI217
aI632
aI297
asg9
I0
sasS'kaistset06-V004-I02159'
p2802
(lp2803
(dp2804
g5
S'person'
p2805
sg7
(lp2806
I521
aI214
aI552
aI275
asg9
I0
sasS'kaistset07-V002-I00359'
p2807
(lp2808
(dp2809
g5
S'person'
p2810
sg7
(lp2811
I596
aI214
aI627
aI268
asg9
I0
sa(dp2812
g5
S'person'
p2813
sg7
(lp2814
I530
aI207
aI555
aI257
asg9
I0
sasS'kaistset06-V004-I02099'
p2815
(lp2816
(dp2817
g5
S'person'
p2818
sg7
(lp2819
I578
aI248
aI602
aI311
asg9
I0
sa(dp2820
g5
S'person'
p2821
sg7
(lp2822
I480
aI235
aI504
aI298
asg9
I0
sasS'kaistset07-V002-I00989'
p2823
(lp2824
(dp2825
g5
S'person'
p2826
sg7
(lp2827
I486
aI208
aI518
aI265
asg9
I0
sasS'kaistset09-V000-I03179'
p2828
(lp2829
(dp2830
g5
S'person'
p2831
sg7
(lp2832
I418
aI219
aI464
aI310
asg9
I0
sasS'kaistset10-V001-I00299'
p2833
(lp2834
(dp2835
g5
S'person'
p2836
sg7
(lp2837
I561
aI208
aI582
aI267
asg9
I0
sa(dp2838
g5
S'person'
p2839
sg7
(lp2840
I570
aI211
aI592
aI270
asg9
I0
sasS'kaistset08-V002-I00509'
p2841
(lp2842
(dp2843
g5
S'person'
p2844
sg7
(lp2845
I501
aI219
aI532
aI300
asg9
I0
sa(dp2846
g5
S'person'
p2847
sg7
(lp2848
I438
aI215
aI482
aI302
asg9
I0
sa(dp2849
g5
S'person'
p2850
sg7
(lp2851
I338
aI219
aI383
aI319
asg9
I0
sa(dp2852
g5
S'person'
p2853
sg7
(lp2854
I465
aI221
aI500
aI318
asg9
I0
sa(dp2855
g5
S'person'
p2856
sg7
(lp2857
I441
aI226
aI498
aI319
asg9
I0
sa(dp2858
g5
S'person'
p2859
sg7
(lp2860
I399
aI223
aI432
aI316
asg9
I0
sa(dp2861
g5
S'person'
p2862
sg7
(lp2863
I328
aI216
aI375
aI316
asg9
I0
sa(dp2864
g5
S'person'
p2865
sg7
(lp2866
I1
aI232
aI24
aI331
asg9
I0
sasS'kaistset06-V001-I00179'
p2867
(lp2868
(dp2869
g5
S'person'
p2870
sg7
(lp2871
I442
aI205
aI468
aI264
asg9
I0
sa(dp2872
g5
S'person'
p2873
sg7
(lp2874
I469
aI213
aI491
aI266
asg9
I0
sasS'kaistset11-V000-I00359'
p2875
(lp2876
(dp2877
g5
S'person'
p2878
sg7
(lp2879
I1
aI236
aI52
aI397
asg9
I0
sa(dp2880
g5
S'person'
p2881
sg7
(lp2882
I58
aI225
aI109
aI395
asg9
I0
sa(dp2883
g5
S'person'
p2884
sg7
(lp2885
I88
aI211
aI144
aI415
asg9
I0
sasS'kaistset08-V001-I00359'
p2886
(lp2887
(dp2888
g5
S'person'
p2889
sg7
(lp2890
I207
aI236
aI267
aI342
asg9
I0
sasS'kaistset08-V000-I01919'
p2891
(lp2892
(dp2893
g5
S'person'
p2894
sg7
(lp2895
I10
aI212
aI61
aI400
asg9
I0
sa(dp2896
g5
S'person'
p2897
sg7
(lp2898
I533
aI224
aI618
aI444
asg9
I0
sa(dp2899
g5
S'person'
p2900
sg7
(lp2901
I274
aI200
aI325
aI379
asg9
I0
sa(dp2902
g5
S'person'
p2903
sg7
(lp2904
I319
aI206
aI368
aI345
asg9
I0
sasS'kaistset08-V000-I01529'
p2905
(lp2906
(dp2907
g5
S'person'
p2908
sg7
(lp2909
I304
aI215
aI329
aI270
asg9
I0
sa(dp2910
g5
S'person'
p2911
sg7
(lp2912
I275
aI210
aI298
aI271
asg9
I0
sa(dp2913
g5
S'person'
p2914
sg7
(lp2915
I355
aI210
aI380
aI262
asg9
I0
sasS'kaistset08-V001-I00329'
p2916
(lp2917
(dp2918
g5
S'person'
p2919
sg7
(lp2920
I1
aI223
aI42
aI339
asg9
I0
sasS'kaistset08-V002-I00479'
p2921
(lp2922
(dp2923
g5
S'person'
p2924
sg7
(lp2925
I240
aI218
aI281
aI316
asg9
I0
sa(dp2926
g5
S'person'
p2927
sg7
(lp2928
I444
aI213
aI478
aI304
asg9
I0
sa(dp2929
g5
S'person'
p2930
sg7
(lp2931
I523
aI215
aI565
aI302
asg9
I0
sa(dp2932
g5
S'person'
p2933
sg7
(lp2934
I49
aI204
aI119
aI341
asg9
I0
sa(dp2935
g5
S'person'
p2936
sg7
(lp2937
I254
aI219
aI296
aI319
asg9
I0
sa(dp2938
g5
S'person'
p2939
sg7
(lp2940
I379
aI222
aI427
aI319
asg9
I0
sa(dp2941
g5
S'person'
p2942
sg7
(lp2943
I369
aI229
aI408
aI318
asg9
I0
sa(dp2944
g5
S'person'
p2945
sg7
(lp2946
I321
aI220
aI358
aI309
asg9
I0
sasS'kaistset07-V001-I03599'
p2947
(lp2948
(dp2949
g5
S'person'
p2950
sg7
(lp2951
I449
aI207
aI480
aI269
asg9
I0
sasS'kaistset06-V004-I00179'
p2952
(lp2953
(dp2954
g5
S'person'
p2955
sg7
(lp2956
I478
aI197
aI524
aI284
asg9
I0
sasS'kaistset06-V003-I00209'
p2957
(lp2958
(dp2959
g5
S'person'
p2960
sg7
(lp2961
I556
aI188
aI580
aI240
asg9
I0
sasS'kaistset08-V000-I01859'
p2962
(lp2963
(dp2964
g5
S'person'
p2965
sg7
(lp2966
I377
aI226
aI407
aI307
asg9
I0
sa(dp2967
g5
S'person'
p2968
sg7
(lp2969
I482
aI212
aI511
aI306
asg9
I0
sasS'kaistset08-V000-I00359'
p2970
(lp2971
(dp2972
g5
S'person'
p2973
sg7
(lp2974
I509
aI201
aI541
aI262
asg9
I0
sasS'kaistset08-V000-I02519'
p2975
(lp2976
(dp2977
g5
S'person'
p2978
sg7
(lp2979
I222
aI202
aI270
aI328
asg9
I0
sa(dp2980
g5
S'person'
p2981
sg7
(lp2982
I189
aI209
aI221
aI325
asg9
I0
sa(dp2983
g5
S'person'
p2984
sg7
(lp2985
I160
aI206
aI194
aI325
asg9
I0
sasS'kaistset06-V003-I01409'
p2986
(lp2987
(dp2988
g5
S'person'
p2989
sg7
(lp2990
I562
aI209
aI589
aI269
asg9
I0
sasS'kaistset06-V001-I00479'
p2991
(lp2992
(dp2993
g5
S'person'
p2994
sg7
(lp2995
I255
aI214
aI307
aI319
asg9
I0
sa(dp2996
g5
S'person'
p2997
sg7
(lp2998
I286
aI211
aI331
aI321
asg9
I0
sa(dp2999
g5
S'person'
p3000
sg7
(lp3001
I48
aI207
aI97
aI295
asg9
I0
sa(dp3002
g5
S'person'
p3003
sg7
(lp3004
I106
aI212
aI139
aI289
asg9
I0
sa(dp3005
g5
S'person'
p3006
sg7
(lp3007
I74
aI207
aI109
aI293
asg9
I0
sa(dp3008
g5
S'person'
p3009
sg7
(lp3010
I534
aI220
aI580
aI333
asg9
I0
sa(dp3011
g5
S'person'
p3012
sg7
(lp3013
I401
aI224
aI436
aI288
asg9
I0
sa(dp3014
g5
S'person'
p3015
sg7
(lp3016
I141
aI221
aI178
aI290
asg9
I0
sa(dp3017
g5
S'person'
p3018
sg7
(lp3019
I481
aI203
aI518
aI260
asg9
I0
sasS'kaistset08-V002-I00719'
p3020
(lp3021
(dp3022
g5
S'person'
p3023
sg7
(lp3024
I241
aI217
aI269
aI274
asg9
I0
sa(dp3025
g5
S'person'
p3026
sg7
(lp3027
I590
aI210
aI617
aI261
asg9
I0
sasS'kaistset08-V001-I01919'
p3028
(lp3029
(dp3030
g5
S'person'
p3031
sg7
(lp3032
I598
aI217
aI632
aI297
asg9
I0
sasS'kaistset11-V000-I01139'
p3033
(lp3034
(dp3035
g5
S'person'
p3036
sg7
(lp3037
I435
aI236
aI480
aI375
asg9
I0
sa(dp3038
g5
S'person'
p3039
sg7
(lp3040
I310
aI234
aI333
aI288
asg9
I0
sasS'kaistset08-V000-I01679'
p3041
(lp3042
(dp3043
g5
S'person'
p3044
sg7
(lp3045
I412
aI244
aI496
aI484
asg9
I0
sa(dp3046
g5
S'person'
p3047
sg7
(lp3048
I515
aI234
aI602
aI502
asg9
I0
sa(dp3049
g5
S'person'
p3050
sg7
(lp3051
I463
aI235
aI523
aI486
asg9
I0
sa(dp3052
g5
S'person'
p3053
sg7
(lp3054
I382
aI214
aI406
aI275
asg9
I0
sa(dp3055
g5
S'person'
p3056
sg7
(lp3057
I370
aI215
aI390
aI276
asg9
I0
sasS'kaistset08-V001-I02939'
p3058
(lp3059
(dp3060
g5
S'person'
p3061
sg7
(lp3062
I2
aI224
aI28
aI279
asg9
I0
sa(dp3063
g5
S'person'
p3064
sg7
(lp3065
I603
aI223
aI623
aI289
asg9
I0
sasS'kaistset06-V000-I01349'
p3066
(lp3067
(dp3068
g5
S'person'
p3069
sg7
(lp3070
I363
aI216
aI384
aI269
asg9
I0
sa(dp3071
g5
S'person'
p3072
sg7
(lp3073
I383
aI214
aI403
aI265
asg9
I0
sasS'kaistset08-V002-I01739'
p3074
(lp3075
(dp3076
g5
S'person'
p3077
sg7
(lp3078
I402
aI220
aI435
aI294
asg9
I0
sa(dp3079
g5
S'person'
p3080
sg7
(lp3081
I387
aI226
aI409
aI290
asg9
I0
sa(dp3082
g5
S'person'
p3083
sg7
(lp3084
I556
aI220
aI590
aI296
asg9
I0
sasS'kaistset06-V000-I00689'
p3085
(lp3086
(dp3087
g5
S'person'
p3088
sg7
(lp3089
I521
aI217
aI542
aI267
asg9
I0
sasS'kaistset07-V001-I02309'
p3090
(lp3091
(dp3092
g5
S'person'
p3093
sg7
(lp3094
I588
aI209
aI618
aI264
asg9
I0
sasS'kaistset11-V000-I00539'
p3095
(lp3096
(dp3097
g5
S'person'
p3098
sg7
(lp3099
I410
aI218
aI443
aI287
asg9
I0
sasS'kaistset06-V003-I04049'
p3100
(lp3101
(dp3102
g5
S'person'
p3103
sg7
(lp3104
I523
aI208
aI551
aI302
asg9
I0
sasS'kaistset08-V001-I02729'
p3105
(lp3106
(dp3107
g5
S'person'
p3108
sg7
(lp3109
I9
aI218
aI39
aI288
asg9
I0
sa(dp3110
g5
S'person'
p3111
sg7
(lp3112
I101
aI219
aI144
aI297
asg9
I0
sa(dp3113
g5
S'person'
p3114
sg7
(lp3115
I54
aI226
aI124
aI371
asg9
I0
sa(dp3116
g5
S'person'
p3117
sg7
(lp3118
I259
aI218
aI355
aI380
asg9
I0
sa(dp3119
g5
S'person'
p3120
sg7
(lp3121
I250
aI229
aI280
aI284
asg9
I0
sa(dp3122
g5
S'person'
p3123
sg7
(lp3124
I131
aI219
aI170
aI308
asg9
I0
sa(dp3125
g5
S'person'
p3126
sg7
(lp3127
I344
aI220
aI383
aI281
asg9
I0
sasS'kaistset08-V000-I02039'
p3128
(lp3129
(dp3130
g5
S'person'
p3131
sg7
(lp3132
I290
aI203
aI313
aI277
asg9
I0
sa(dp3133
g5
S'person'
p3134
sg7
(lp3135
I302
aI212
aI328
aI279
asg9
I0
sa(dp3136
g5
S'person'
p3137
sg7
(lp3138
I356
aI209
aI386
aI289
asg9
I0
sasS'kaistset08-V001-I02489'
p3139
(lp3140
(dp3141
g5
S'person'
p3142
sg7
(lp3143
I224
aI217
aI251
aI287
asg9
I0
sa(dp3144
g5
S'person'
p3145
sg7
(lp3146
I241
aI220
aI272
aI311
asg9
I0
sa(dp3147
g5
S'person'
p3148
sg7
(lp3149
I398
aI224
aI436
aI308
asg9
I0
sa(dp3150
g5
S'person'
p3151
sg7
(lp3152
I443
aI221
aI476
aI310
asg9
I0
sa(dp3153
g5
S'person'
p3154
sg7
(lp3155
I195
aI216
aI254
aI320
asg9
I0
sa(dp3156
g5
S'person'
p3157
sg7
(lp3158
I284
aI219
aI328
aI292
asg9
I0
sa(dp3159
g5
S'person'
p3160
sg7
(lp3161
I65
aI229
aI142
aI357
asg9
I0
sa(dp3162
g5
S'person'
p3163
sg7
(lp3164
I365
aI249
aI392
aI303
asg9
I0
sasS'kaistset10-V001-I02429'
p3165
(lp3166
(dp3167
g5
S'person'
p3168
sg7
(lp3169
I520
aI215
aI547
aI272
asg9
I0
sasS'kaistset06-V002-I01049'
p3170
(lp3171
(dp3172
g5
S'person'
p3173
sg7
(lp3174
I464
aI229
aI498
aI292
asg9
I0
sa(dp3175
g5
S'person'
p3176
sg7
(lp3177
I487
aI230
aI522
aI295
asg9
I0
sa(dp3178
g5
S'person'
p3179
sg7
(lp3180
I479
aI230
aI511
aI292
asg9
I0
sasS'kaistset08-V001-I01859'
p3181
(lp3182
(dp3183
g5
S'person'
p3184
sg7
(lp3185
I598
aI217
aI632
aI297
asg9
I0
sasS'kaistset10-V001-I04049'
p3186
(lp3187
(dp3188
g5
S'person'
p3189
sg7
(lp3190
I597
aI212
aI628
aI288
asg9
I0
sasS'kaistset06-V000-I01439'
p3191
(lp3192
(dp3193
g5
S'person'
p3194
sg7
(lp3195
I517
aI210
aI541
aI278
asg9
I0
sasS'kaistset08-V001-I02339'
p3196
(lp3197
(dp3198
g5
S'person'
p3199
sg7
(lp3200
I573
aI224
aI607
aI304
asg9
I0
sasS'kaistset07-V001-I02399'
p3201
(lp3202
(dp3203
g5
S'person'
p3204
sg7
(lp3205
I592
aI216
aI637
aI324
asg9
I0
sasS'kaistset08-V002-I02339'
p3206
(lp3207
(dp3208
g5
S'person'
p3209
sg7
(lp3210
I483
aI216
aI512
aI278
asg9
I0
sasS'kaistset07-V000-I02189'
p3211
(lp3212
(dp3213
g5
S'person'
p3214
sg7
(lp3215
I605
aI203
aI638
aI267
asg9
I0
sasS'kaistset06-V003-I00689'
p3216
(lp3217
(dp3218
g5
S'person'
p3219
sg7
(lp3220
I598
aI218
aI625
aI288
asg9
I0
sasS'kaistset08-V000-I01079'
p3221
(lp3222
(dp3223
g5
S'person'
p3224
sg7
(lp3225
I356
aI210
aI388
aI274
asg9
I0
sa(dp3226
g5
S'person'
p3227
sg7
(lp3228
I323
aI210
aI346
aI267
asg9
I0
sasS'kaistset08-V002-I01649'
p3229
(lp3230
(dp3231
g5
S'person'
p3232
sg7
(lp3233
I610
aI217
aI641
aI308
asg9
I0
sa(dp3234
g5
S'person'
p3235
sg7
(lp3236
I547
aI217
aI582
aI317
asg9
I0
sa(dp3237
g5
S'person'
p3238
sg7
(lp3239
I576
aI213
aI615
aI303
asg9
I0
sasS'kaistset11-V000-I00869'
p3240
(lp3241
(dp3242
g5
S'person'
p3243
sg7
(lp3244
I390
aI232
aI428
aI365
asg9
I0
sa(dp3245
g5
S'person'
p3246
sg7
(lp3247
I369
aI228
aI400
aI360
asg9
I0
sa(dp3248
g5
S'person'
p3249
sg7
(lp3250
I294
aI221
aI335
aI303
asg9
I0
sasS'kaistset06-V003-I00569'
p3251
(lp3252
(dp3253
g5
S'person'
p3254
sg7
(lp3255
I475
aI210
aI497
aI260
asg9
I0
sasS'kaistset08-V001-I02159'
p3256
(lp3257
(dp3258
g5
S'person'
p3259
sg7
(lp3260
I598
aI217
aI632
aI297
asg9
I0
sasS'kaistset06-V004-I00209'
p3261
(lp3262
(dp3263
g5
S'person'
p3264
sg7
(lp3265
I204
aI213
aI289
aI476
asg9
I0
sasS'kaistset11-V000-I00989'
p3266
(lp3267
(dp3268
g5
S'person'
p3269
sg7
(lp3270
I514
aI245
aI590
aI468
asg9
I0
sa(dp3271
g5
S'person'
p3272
sg7
(lp3273
I579
aI239
aI639
aI497
asg9
I0
sa(dp3274
g5
S'person'
p3275
sg7
(lp3276
I250
aI228
aI283
aI316
asg9
I0
sasS'kaistset10-V001-I03269'
p3277
(lp3278
(dp3279
g5
S'person'
p3280
sg7
(lp3281
I581
aI213
aI611
aI286
asg9
I0
sa(dp3282
g5
S'person'
p3283
sg7
(lp3284
I462
aI209
aI491
aI269
asg9
I0
sasS'kaistset06-V003-I00599'
p3285
(lp3286
(dp3287
g5
S'person'
p3288
sg7
(lp3289
I517
aI212
aI539
aI270
asg9
I0
sasS'kaistset06-V003-I00269'
p3290
(lp3291
(dp3292
g5
S'person'
p3293
sg7
(lp3294
I543
aI214
aI565
aI271
asg9
I0
sa(dp3295
g5
S'person'
p3296
sg7
(lp3297
I489
aI224
aI511
aI276
asg9
I0
sa(dp3298
g5
S'person'
p3299
sg7
(lp3300
I506
aI216
aI533
aI274
asg9
I0
sasS'kaistset06-V002-I00449'
p3301
(lp3302
(dp3303
g5
S'person'
p3304
sg7
(lp3305
I543
aI240
aI591
aI341
asg9
I0
sasS'kaistset06-V001-I00359'
p3306
(lp3307
(dp3308
g5
S'person'
p3309
sg7
(lp3310
I541
aI215
aI572
aI288
asg9
I0
sa(dp3311
g5
S'person'
p3312
sg7
(lp3313
I561
aI219
aI593
aI292
asg9
I0
sasS'kaistset10-V000-I01199'
p3314
(lp3315
(dp3316
g5
S'person'
p3317
sg7
(lp3318
I437
aI213
aI462
aI273
asg9
I0
sa(dp3319
g5
S'person'
p3320
sg7
(lp3321
I456
aI215
aI479
aI281
asg9
I0
sasS'kaistset11-V001-I00959'
p3322
(lp3323
(dp3324
g5
S'person'
p3325
sg7
(lp3326
I611
aI217
aI640
aI287
asg9
I0
sa(dp3327
g5
S'person'
p3328
sg7
(lp3329
I591
aI216
aI618
aI283
asg9
I0
sasS'kaistset08-V001-I01079'
p3330
(lp3331
(dp3332
g5
S'person'
p3333
sg7
(lp3334
I452
aI208
aI489
aI270
asg9
I0
sasS'kaistset06-V003-I03149'
p3335
(lp3336
(dp3337
g5
S'person'
p3338
sg7
(lp3339
I435
aI233
aI498
aI449
asg9
I0
sasS'kaistset06-V003-I02039'
p3340
(lp3341
(dp3342
g5
S'person'
p3343
sg7
(lp3344
I153
aI216
aI183
aI285
asg9
I0
sasS'kaistset06-V004-I02639'
p3345
(lp3346
(dp3347
g5
S'person'
p3348
sg7
(lp3349
I474
aI209
aI498
aI260
asg9
I0
sasS'kaistset11-V000-I01589'
p3350
(lp3351
(dp3352
g5
S'person'
p3353
sg7
(lp3354
I30
aI243
aI87
aI336
asg9
I0
sasS'kaistset06-V003-I00299'
p3355
(lp3356
(dp3357
g5
S'person'
p3358
sg7
(lp3359
I584
aI217
aI611
aI278
asg9
I0
sa(dp3360
g5
S'person'
p3361
sg7
(lp3362
I586
aI232
aI610
aI290
asg9
I0
sa(dp3363
g5
S'person'
p3364
sg7
(lp3365
I612
aI227
aI640
aI289
asg9
I0
sasS'kaistset08-V002-I01439'
p3366
(lp3367
(dp3368
g5
S'person'
p3369
sg7
(lp3370
I411
aI223
aI441
aI277
asg9
I0
sa(dp3371
g5
S'person'
p3372
sg7
(lp3373
I21
aI214
aI69
aI309
asg9
I0
sa(dp3374
g5
S'person'
p3375
sg7
(lp3376
I61
aI219
aI99
aI283
asg9
I0
sasS'kaistset10-V000-I03629'
p3377
(lp3378
(dp3379
g5
S'person'
p3380
sg7
(lp3381
I566
aI196
aI619
aI353
asg9
I0
sa(dp3382
g5
S'person'
p3383
sg7
(lp3384
I486
aI193
aI540
aI334
asg9
I0
sasS'kaistset08-V002-I00659'
p3385
(lp3386
(dp3387
g5
S'person'
p3388
sg7
(lp3389
I257
aI216
aI281
aI276
asg9
I0
sasS'kaistset08-V002-I00239'
p3390
(lp3391
(dp3392
g5
S'person'
p3393
sg7
(lp3394
I509
aI207
aI534
aI284
asg9
I0
sa(dp3395
g5
S'person'
p3396
sg7
(lp3397
I506
aI207
aI534
aI281
asg9
I0
sasS'kaistset09-V000-I01259'
p3398
(lp3399
(dp3400
g5
S'person'
p3401
sg7
(lp3402
I23
aI206
aI104
aI420
asg9
I0
sa(dp3403
g5
S'person'
p3404
sg7
(lp3405
I55
aI240
aI149
aI461
asg9
I0
sasS'kaistset09-V000-I01139'
p3406
(lp3407
(dp3408
g5
S'person'
p3409
sg7
(lp3410
I169
aI227
aI241
aI414
asg9
I0
sa(dp3411
g5
S'person'
p3412
sg7
(lp3413
I415
aI225
aI467
aI341
asg9
I0
sa(dp3414
g5
S'person'
p3415
sg7
(lp3416
I306
aI233
aI327
aI284
asg9
I0
sa(dp3417
g5
S'person'
p3418
sg7
(lp3419
I330
aI239
aI360
aI297
asg9
I0
sasS'kaistset11-V001-I00419'
p3420
(lp3421
(dp3422
g5
S'person'
p3423
sg7
(lp3424
I592
aI211
aI620
aI273
asg9
I0
sasS'kaistset08-V000-I01319'
p3425
(lp3426
(dp3427
g5
S'person'
p3428
sg7
(lp3429
I375
aI202
aI407
aI288
asg9
I0
sa(dp3430
g5
S'person'
p3431
sg7
(lp3432
I236
aI188
aI259
aI248
asg9
I0
sasS'kaistset08-V000-I01559'
p3433
(lp3434
(dp3435
g5
S'person'
p3436
sg7
(lp3437
I262
aI207
aI292
aI277
asg9
I0
sa(dp3438
g5
S'person'
p3439
sg7
(lp3440
I237
aI209
aI266
aI283
asg9
I0
sa(dp3441
g5
S'person'
p3442
sg7
(lp3443
I294
aI213
aI319
aI286
asg9
I0
sa(dp3444
g5
S'person'
p3445
sg7
(lp3446
I310
aI213
aI342
aI289
asg9
I0
sasS'kaistset06-V001-I00509'
p3447
(lp3448
(dp3449
g5
S'person'
p3450
sg7
(lp3451
I225
aI219
aI273
aI311
asg9
I0
sa(dp3452
g5
S'person'
p3453
sg7
(lp3454
I257
aI213
aI299
aI315
asg9
I0
sa(dp3455
g5
S'person'
p3456
sg7
(lp3457
I69
aI210
aI118
aI307
asg9
I0
sa(dp3458
g5
S'person'
p3459
sg7
(lp3460
I139
aI212
aI172
aI289
asg9
I0
sa(dp3461
g5
S'person'
p3462
sg7
(lp3463
I101
aI203
aI134
aI303
asg9
I0
sa(dp3464
g5
S'person'
p3465
sg7
(lp3466
I574
aI228
aI625
aI429
asg9
I0
sa(dp3467
g5
S'person'
p3468
sg7
(lp3469
I486
aI221
aI537
aI323
asg9
I0
sa(dp3470
g5
S'person'
p3471
sg7
(lp3472
I410
aI220
aI445
aI284
asg9
I0
sa(dp3473
g5
S'person'
p3474
sg7
(lp3475
I142
aI224
aI172
aI292
asg9
I0
sa(dp3476
g5
S'person'
p3477
sg7
(lp3478
I460
aI204
aI497
aI261
asg9
I0
sasS'kaistset08-V002-I00839'
p3479
(lp3480
(dp3481
g5
S'person'
p3482
sg7
(lp3483
I221
aI214
aI255
aI287
asg9
I0
sasS'kaistset08-V001-I00779'
p3484
(lp3485
(dp3486
g5
S'person'
p3487
sg7
(lp3488
I342
aI213
aI387
aI300
asg9
I0
sasS'kaistset10-V000-I03659'
p3489
(lp3490
(dp3491
g5
S'person'
p3492
sg7
(lp3493
I546
aI197
aI611
aI377
asg9
I0
sasS'kaistset06-V003-I02249'
p3494
(lp3495
(dp3496
g5
S'person'
p3497
sg7
(lp3498
I313
aI214
aI333
aI267
asg9
I0
sasS'kaistset08-V000-I00779'
p3499
(lp3500
(dp3501
g5
S'person'
p3502
sg7
(lp3503
I527
aI225
aI566
aI341
asg9
I0
sasS'kaistset11-V000-I01739'
p3504
(lp3505
(dp3506
g5
S'person'
p3507
sg7
(lp3508
I393
aI220
aI415
aI296
asg9
I0
sa(dp3509
g5
S'person'
p3510
sg7
(lp3511
I414
aI224
aI444
aI301
asg9
I0
sasS'kaistset08-V001-I02579'
p3512
(lp3513
(dp3514
g5
S'person'
p3515
sg7
(lp3516
I81
aI220
aI106
aI278
asg9
I0
sa(dp3517
g5
S'person'
p3518
sg7
(lp3519
I109
aI220
aI136
aI293
asg9
I0
sa(dp3520
g5
S'person'
p3521
sg7
(lp3522
I213
aI218
aI253
aI302
asg9
I0
sa(dp3523
g5
S'person'
p3524
sg7
(lp3525
I256
aI216
aI289
aI303
asg9
I0
sa(dp3526
g5
S'person'
p3527
sg7
(lp3528
I450
aI212
aI492
aI301
asg9
I0
sa(dp3529
g5
S'person'
p3530
sg7
(lp3531
I130
aI216
aI164
aI288
asg9
I0
sa(dp3532
g5
S'person'
p3533
sg7
(lp3534
I385
aI214
aI450
aI372
asg9
I0
sa(dp3535
g5
S'person'
p3536
sg7
(lp3537
I481
aI220
aI526
aI352
asg9
I0
sa(dp3538
g5
S'person'
p3539
sg7
(lp3540
I79
aI212
aI118
aI315
asg9
I0
sa(dp3541
g5
S'person'
p3542
sg7
(lp3543
I587
aI226
aI617
aI283
asg9
I0
sa(dp3544
g5
S'person'
p3545
sg7
(lp3546
I158
aI244
aI185
aI298
asg9
I0
sasS'kaistset08-V002-I00989'
p3547
(lp3548
(dp3549
g5
S'person'
p3550
sg7
(lp3551
I430
aI219
aI468
aI304
asg9
I0
sasS'kaistset06-V002-I00209'
p3552
(lp3553
(dp3554
g5
S'person'
p3555
sg7
(lp3556
I572
aI222
aI610
aI299
asg9
I0
sa(dp3557
g5
S'person'
p3558
sg7
(lp3559
I597
aI222
aI632
aI297
asg9
I0
sasS'kaistset08-V000-I00899'
p3560
(lp3561
(dp3562
g5
S'person'
p3563
sg7
(lp3564
I24
aI207
aI86
aI398
asg9
I0
sa(dp3565
g5
S'person'
p3566
sg7
(lp3567
I144
aI193
aI212
aI378
asg9
I0
sa(dp3568
g5
S'person'
p3569
sg7
(lp3570
I461
aI222
aI489
aI308
asg9
I0
sa(dp3571
g5
S'person'
p3572
sg7
(lp3573
I442
aI232
aI470
aI300
asg9
I0
sasS'kaistset06-V000-I00419'
p3574
(lp3575
(dp3576
g5
S'person'
p3577
sg7
(lp3578
I574
aI216
aI601
aI279
asg9
I0
sa(dp3579
g5
S'person'
p3580
sg7
(lp3581
I544
aI217
aI567
aI276
asg9
I0
sasS'kaistset08-V001-I00659'
p3582
(lp3583
(dp3584
g5
S'person'
p3585
sg7
(lp3586
I434
aI204
aI472
aI299
asg9
I0
sa(dp3587
g5
S'person'
p3588
sg7
(lp3589
I7
aI207
aI52
aI271
asg9
I0
sasS'kaistset08-V002-I00449'
p3590
(lp3591
(dp3592
g5
S'person'
p3593
sg7
(lp3594
I149
aI218
aI209
aI325
asg9
I0
sa(dp3595
g5
S'person'
p3596
sg7
(lp3597
I294
aI220
aI344
aI316
asg9
I0
sa(dp3598
g5
S'person'
p3599
sg7
(lp3600
I288
aI227
aI323
aI314
asg9
I0
sa(dp3601
g5
S'person'
p3602
sg7
(lp3603
I229
aI218
aI271
aI305
asg9
I0
sa(dp3604
g5
S'person'
p3605
sg7
(lp3606
I127
aI216
aI181
aI323
asg9
I0
sa(dp3607
g5
S'person'
p3608
sg7
(lp3609
I390
aI218
aI425
aI304
asg9
I0
sa(dp3610
g5
S'person'
p3611
sg7
(lp3612
I562
aI213
aI594
aI293
asg9
I0
sa(dp3613
g5
S'person'
p3614
sg7
(lp3615
I182
aI207
aI229
aI333
asg9
I0
sasS'kaistset10-V000-I03479'
p3616
(lp3617
(dp3618
g5
S'person'
p3619
sg7
(lp3620
I408
aI206
aI434
aI270
asg9
I0
sa(dp3621
g5
S'person'
p3622
sg7
(lp3623
I367
aI205
aI391
aI263
asg9
I0
sasS'kaistset08-V002-I01019'
p3624
(lp3625
(dp3626
g5
S'person'
p3627
sg7
(lp3628
I210
aI216
aI265
aI342
asg9
I0
sa(dp3629
g5
S'person'
p3630
sg7
(lp3631
I499
aI213
aI534
aI286
asg9
I0
sa(dp3632
g5
S'person'
p3633
sg7
(lp3634
I519
aI209
aI554
aI283
asg9
I0
sa(dp3635
g5
S'person'
p3636
sg7
(lp3637
I140
aI205
aI207
aI318
asg9
I0
sasS'kaistset08-V001-I02069'
p3638
(lp3639
(dp3640
g5
S'person'
p3641
sg7
(lp3642
I598
aI217
aI632
aI297
asg9
I0
sasS'kaistset08-V000-I00809'
p3643
(lp3644
(dp3645
g5
S'person'
p3646
sg7
(lp3647
I65
aI207
aI133
aI396
asg9
I0
sa(dp3648
g5
S'person'
p3649
sg7
(lp3650
I488
aI210
aI524
aI317
asg9
I0
sa(dp3651
g5
S'person'
p3652
sg7
(lp3653
I140
aI210
aI218
aI412
asg9
I0
sasS'kaistset10-V001-I01649'
p3654
(lp3655
(dp3656
g5
S'person'
p3657
sg7
(lp3658
I583
aI217
aI610
aI283
asg9
I0
sa(dp3659
g5
S'person'
p3660
sg7
(lp3661
I569
aI222
aI594
aI286
asg9
I0
sasS'kaistset08-V001-I02279'
p3662
(lp3663
(dp3664
g5
S'person'
p3665
sg7
(lp3666
I598
aI217
aI632
aI297
asg9
I0
sasS'kaistset07-V002-I01289'
p3667
(lp3668
(dp3669
g5
S'person'
p3670
sg7
(lp3671
I595
aI205
aI627
aI275
asg9
I0
sasS'kaistset07-V002-I00869'
p3672
(lp3673
(dp3674
g5
S'person'
p3675
sg7
(lp3676
I592
aI219
aI618
aI283
asg9
I0
sa(dp3677
g5
S'person'
p3678
sg7
(lp3679
I569
aI219
aI598
aI289
asg9
I0
sasS'kaistset11-V000-I01499'
p3680
(lp3681
(dp3682
g5
S'person'
p3683
sg7
(lp3684
I334
aI235
aI377
aI352
asg9
I0
sa(dp3685
g5
S'person'
p3686
sg7
(lp3687
I386
aI234
aI419
aI353
asg9
I0
sasS'kaistset11-V000-I00509'
p3688
(lp3689
(dp3690
g5
S'person'
p3691
sg7
(lp3692
I364
aI216
aI393
aI281
asg9
I0
sasS'kaistset06-V003-I04019'
p3693
(lp3694
(dp3695
g5
S'person'
p3696
sg7
(lp3697
I403
aI214
aI428
aI279
asg9
I0
sasS'kaistset09-V000-I00149'
p3698
(lp3699
(dp3700
g5
S'person'
p3701
sg7
(lp3702
I147
aI213
aI171
aI284
asg9
I0
sasS'kaistset07-V000-I02099'
p3703
(lp3704
(dp3705
g5
S'person'
p3706
sg7
(lp3707
I594
aI226
aI641
aI333
asg9
I0
sasS'kaistset11-V000-I01559'
p3708
(lp3709
(dp3710
g5
S'person'
p3711
sg7
(lp3712
I20
aI246
aI82
aI451
asg9
I0
sa(dp3713
g5
S'person'
p3714
sg7
(lp3715
I69
aI239
aI139
aI462
asg9
I0
sasS'kaistset08-V002-I01949'
p3716
(lp3717
(dp3718
g5
S'person'
p3719
sg7
(lp3720
I132
aI203
aI160
aI270
asg9
I0
sa(dp3721
g5
S'person'
p3722
sg7
(lp3723
I120
aI212
aI143
aI274
asg9
I0
sasS'kaistset11-V000-I00269'
p3724
(lp3725
(dp3726
g5
S'person'
p3727
sg7
(lp3728
I406
aI229
aI428
aI301
asg9
I0
sa(dp3729
g5
S'person'
p3730
sg7
(lp3731
I380
aI232
aI402
aI289
asg9
I0
sa(dp3732
g5
S'person'
p3733
sg7
(lp3734
I121
aI232
aI150
aI294
asg9
I0
sa(dp3735
g5
S'person'
p3736
sg7
(lp3737
I111
aI228
aI136
aI297
asg9
I0
sa(dp3738
g5
S'person'
p3739
sg7
(lp3740
I224
aI223
aI244
aI284
asg9
I0
sasS'kaistset06-V000-I01379'
p3741
(lp3742
(dp3743
g5
S'person'
p3744
sg7
(lp3745
I396
aI214
aI416
aI267
asg9
I0
sasS'kaistset08-V002-I01769'
p3746
(lp3747
(dp3748
g5
S'person'
p3749
sg7
(lp3750
I449
aI217
aI488
aI321
asg9
I0
sa(dp3751
g5
S'person'
p3752
sg7
(lp3753
I436
aI225
aI466
aI321
asg9
I0
sasS'kaistset07-V001-I01499'
p3754
(lp3755
(dp3756
g5
S'person'
p3757
sg7
(lp3758
I571
aI212
aI605
aI267
asg9
I0
sasS'kaistset10-V001-I03029'
p3759
(lp3760
(dp3761
g5
S'person'
p3762
sg7
(lp3763
I487
aI213
aI523
aI295
asg9
I0
sasS'kaistset08-V000-I02459'
p3764
(lp3765
(dp3766
g5
S'person'
p3767
sg7
(lp3768
I289
aI211
aI315
aI275
asg9
I0
sa(dp3769
g5
S'person'
p3770
sg7
(lp3771
I265
aI214
aI286
aI271
asg9
I0
sa(dp3772
g5
S'person'
p3773
sg7
(lp3774
I247
aI208
aI269
aI270
asg9
I0
sasS'kaistset08-V000-I01739'
p3775
(lp3776
(dp3777
g5
S'person'
p3778
sg7
(lp3779
I404
aI208
aI435
aI278
asg9
I0
sa(dp3780
g5
S'person'
p3781
sg7
(lp3782
I394
aI214
aI415
aI275
asg9
I0
sasS'kaistset06-V003-I03089'
p3783
(lp3784
(dp3785
g5
S'person'
p3786
sg7
(lp3787
I70
aI214
aI137
aI415
asg9
I0
sasS'kaistset11-V000-I01259'
p3788
(lp3789
(dp3790
g5
S'person'
p3791
sg7
(lp3792
I431
aI233
aI470
aI334
asg9
I0
sa(dp3793
g5
S'person'
p3794
sg7
(lp3795
I457
aI228
aI486
aI323
asg9
I0
sasS'kaistset09-V000-I00899'
p3796
(lp3797
(dp3798
g5
S'person'
p3799
sg7
(lp3800
I3
aI214
aI25
aI279
asg9
I0
sasS'kaistset07-V001-I03569'
p3801
(lp3802
(dp3803
g5
S'person'
p3804
sg7
(lp3805
I372
aI196
aI414
aI260
asg9
I0
sasS'kaistset06-V004-I00809'
p3806
(lp3807
(dp3808
g5
S'person'
p3809
sg7
(lp3810
I85
aI224
aI119
aI305
asg9
I0
sasS'kaistset08-V002-I01289'
p3811
(lp3812
(dp3813
g5
S'person'
p3814
sg7
(lp3815
I388
aI200
aI423
aI271
asg9
I0
sa(dp3816
g5
S'person'
p3817
sg7
(lp3818
I377
aI200
aI414
aI273
asg9
I0
sa(dp3819
g5
S'person'
p3820
sg7
(lp3821
I542
aI216
aI584
aI304
asg9
I0
sa(dp3822
g5
S'person'
p3823
sg7
(lp3824
I494
aI197
aI527
aI270
asg9
I0
sa(dp3825
g5
S'person'
p3826
sg7
(lp3827
I504
aI203
aI531
aI267
asg9
I0
sasS'kaistset07-V001-I03809'
p3828
(lp3829
(dp3830
g5
S'person'
p3831
sg7
(lp3832
I480
aI207
aI514
aI293
asg9
I0
sasS'kaistset06-V004-I02669'
p3833
(lp3834
(dp3835
g5
S'person'
p3836
sg7
(lp3837
I593
aI202
aI624
aI274
asg9
I0
sasS'kaistset11-V001-I00179'
p3838
(lp3839
(dp3840
g5
S'person'
p3841
sg7
(lp3842
I31
aI217
aI93
aI338
asg9
I0
sa(dp3843
g5
S'person'
p3844
sg7
(lp3845
I548
aI204
aI580
aI270
asg9
I0
sasS'kaistset11-V000-I01199'
p3846
(lp3847
(dp3848
g5
S'person'
p3849
sg7
(lp3850
I69
aI246
aI117
aI378
asg9
I0
sa(dp3851
g5
S'person'
p3852
sg7
(lp3853
I117
aI243
aI158
aI387
asg9
I0
sa(dp3854
g5
S'person'
p3855
sg7
(lp3856
I363
aI231
aI397
aI309
asg9
I0
sa(dp3857
g5
S'person'
p3858
sg7
(lp3859
I380
aI223
aI409
aI301
asg9
I0
sa(dp3860
g5
S'person'
p3861
sg7
(lp3862
I3
aI232
aI46
aI511
asg9
I0
sasS'kaistset11-V000-I00959'
p3863
(lp3864
(dp3865
g5
S'person'
p3866
sg7
(lp3867
I581
aI229
aI636
aI389
asg9
I0
sa(dp3868
g5
S'person'
p3869
sg7
(lp3870
I463
aI228
aI496
aI344
asg9
I0
sa(dp3871
g5
S'person'
p3872
sg7
(lp3873
I533
aI226
aI568
aI375
asg9
I0
sa(dp3874
g5
S'person'
p3875
sg7
(lp3876
I487
aI228
aI523
aI355
asg9
I0
sasS'kaistset07-V001-I01229'
p3877
(lp3878
(dp3879
g5
S'person'
p3880
sg7
(lp3881
I548
aI203
aI577
aI259
asg9
I0
sa(dp3882
g5
S'person'
p3883
sg7
(lp3884
I519
aI200
aI545
aI257
asg9
I0
sasS'kaistset06-V003-I03569'
p3885
(lp3886
(dp3887
g5
S'person'
p3888
sg7
(lp3889
I480
aI218
aI505
aI283
asg9
I0
sa(dp3890
g5
S'person'
p3891
sg7
(lp3892
I418
aI220
aI444
aI292
asg9
I0
sa(dp3893
g5
S'person'
p3894
sg7
(lp3895
I558
aI221
aI583
aI285
asg9
I0
sa(dp3896
g5
S'person'
p3897
sg7
(lp3898
I452
aI227
aI475
aI281
asg9
I0
sa(dp3899
g5
S'person'
p3900
sg7
(lp3901
I450
aI231
aI471
aI290
asg9
I0
sasS'kaistset10-V001-I03239'
p3902
(lp3903
(dp3904
g5
S'person'
p3905
sg7
(lp3906
I505
aI212
aI525
aI266
asg9
I0
sasS'kaistset08-V002-I01169'
p3907
(lp3908
(dp3909
g5
S'person'
p3910
sg7
(lp3911
I600
aI207
aI635
aI290
asg9
I0
sa(dp3912
g5
S'person'
p3913
sg7
(lp3914
I99
aI204
aI124
aI255
asg9
I0
sasS'kaistset10-V001-I04109'
p3915
(lp3916
(dp3917
g5
S'person'
p3918
sg7
(lp3919
I492
aI224
aI512
aI275
asg9
I0
sasS'kaistset08-V000-I02009'
p3920
(lp3921
(dp3922
g5
S'person'
p3923
sg7
(lp3924
I292
aI205
aI316
aI282
asg9
I0
sa(dp3925
g5
S'person'
p3926
sg7
(lp3927
I305
aI210
aI331
aI277
asg9
I0
sa(dp3928
g5
S'person'
p3929
sg7
(lp3930
I339
aI207
aI359
aI275
asg9
I0
sasS'kaistset08-V002-I00689'
p3931
(lp3932
(dp3933
g5
S'person'
p3934
sg7
(lp3935
I254
aI224
aI276
aI278
asg9
I0
sasS'kaistset08-V002-I02009'
p3936
(lp3937
(dp3938
g5
S'person'
p3939
sg7
(lp3940
I8
aI202
aI57
aI283
asg9
I0
sa(dp3941
g5
S'person'
p3942
sg7
(lp3943
I4
aI202
aI40
aI282
asg9
I0
sa(dp3944
g5
S'person'
p3945
sg7
(lp3946
I603
aI216
aI640
aI332
asg9
I0
sasS'kaistset09-V000-I00929'
p3947
(lp3948
(dp3949
g5
S'person'
p3950
sg7
(lp3951
I3
aI219
aI43
aI314
asg9
I0
sa(dp3952
g5
S'person'
p3953
sg7
(lp3954
I51
aI218
aI76
aI297
asg9
I0
sasS'kaistset07-V002-I00689'
p3955
(lp3956
(dp3957
g5
S'person'
p3958
sg7
(lp3959
I593
aI191
aI625
aI252
asg9
I0
sasS'kaistset07-V000-I00749'
p3960
(lp3961
(dp3962
g5
S'person'
p3963
sg7
(lp3964
I480
aI214
aI503
aI271
asg9
I0
sasS'kaistset06-V000-I01109'
p3965
(lp3966
(dp3967
g5
S'person'
p3968
sg7
(lp3969
I402
aI221
aI423
aI271
asg9
I0
sasS'kaistset07-V002-I01349'
p3970
(lp3971
(dp3972
g5
S'person'
p3973
sg7
(lp3974
I588
aI208
aI620
aI295
asg9
I0
sa(dp3975
g5
S'person'
p3976
sg7
(lp3977
I494
aI207
aI538
aI289
asg9
I0
sasS'kaistset06-V003-I02969'
p3978
(lp3979
(dp3980
g5
S'person'
p3981
sg7
(lp3982
I405
aI226
aI425
aI284
asg9
I0
sasS'kaistset07-V001-I02699'
p3983
(lp3984
(dp3985
g5
S'person'
p3986
sg7
(lp3987
I533
aI194
aI569
aI272
asg9
I0
sasS'kaistset08-V001-I01109'
p3988
(lp3989
(dp3990
g5
S'person'
p3991
sg7
(lp3992
I169
aI206
aI201
aI274
asg9
I0
sa(dp3993
g5
S'person'
p3994
sg7
(lp3995
I308
aI212
aI348
aI279
asg9
I0
sasS'kaistset06-V001-I00389'
p3996
(lp3997
(dp3998
g5
S'person'
p3999
sg7
(lp4000
I541
aI215
aI581
aI309
asg9
I0
sa(dp4001
g5
S'person'
p4002
sg7
(lp4003
I572
aI216
aI606
aI306
asg9
I0
sa(dp4004
g5
S'person'
p4005
sg7
(lp4006
I239
aI183
aI271
aI241
asg9
I0
sa(dp4007
g5
S'person'
p4008
sg7
(lp4009
I301
aI201
aI329
aI251
asg9
I0
sa(dp4010
g5
S'person'
p4011
sg7
(lp4012
I318
aI196
aI345
aI253
asg9
I0
sa(dp4013
g5
S'person'
p4014
sg7
(lp4015
I607
aI228
aI636
aI282
asg9
I0
sasS'kaistset06-V004-I02069'
p4016
(lp4017
(dp4018
g5
S'person'
p4019
sg7
(lp4020
I507
aI206
aI529
aI259
asg9
I0
sasS'kaistset08-V002-I02099'
p4021
(lp4022
(dp4023
g5
S'person'
p4024
sg7
(lp4025
I27
aI206
aI81
aI303
asg9
I0
sa(dp4026
g5
S'person'
p4027
sg7
(lp4028
I5
aI204
aI55
aI310
asg9
I0
sasS'kaistset08-V000-I00989'
p4029
(lp4030
(dp4031
g5
S'person'
p4032
sg7
(lp4033
I135
aI212
aI187
aI315
asg9
I0
sa(dp4034
g5
S'person'
p4035
sg7
(lp4036
I368
aI224
aI407
aI312
asg9
I0
sa(dp4037
g5
S'person'
p4038
sg7
(lp4039
I98
aI207
aI143
aI310
asg9
I0
sasS'kaistset11-V000-I01109'
p4040
(lp4041
(dp4042
g5
S'person'
p4043
sg7
(lp4044
I19
aI237
aI82
aI436
asg9
I0
sa(dp4045
g5
S'person'
p4046
sg7
(lp4047
I376
aI228
aI407
aI308
asg9
I0
sasS'kaistset07-V002-I00449'
p4048
(lp4049
(dp4050
g5
S'person'
p4051
sg7
(lp4052
I586
aI209
aI614
aI264
asg9
I0
sasS'kaistset08-V002-I00269'
p4053
(lp4054
(dp4055
g5
S'person'
p4056
sg7
(lp4057
I567
aI209
aI598
aI301
asg9
I0
sa(dp4058
g5
S'person'
p4059
sg7
(lp4060
I126
aI214
aI153
aI265
asg9
I0
sa(dp4061
g5
S'person'
p4062
sg7
(lp4063
I108
aI215
aI146
aI275
asg9
I0
sa(dp4064
g5
S'person'
p4065
sg7
(lp4066
I95
aI212
aI131
aI276
asg9
I0
sa(dp4067
g5
S'person'
p4068
sg7
(lp4069
I557
aI213
aI591
aI294
asg9
I0
sasS'kaistset06-V004-I02129'
p4070
(lp4071
(dp4072
g5
S'person'
p4073
sg7
(lp4074
I527
aI211
aI560
aI290
asg9
I0
sasS'kaistset08-V002-I00869'
p4075
(lp4076
(dp4077
g5
S'person'
p4078
sg7
(lp4079
I214
aI214
aI241
aI287
asg9
I0
sasS'kaistset09-V000-I01109'
p4080
(lp4081
(dp4082
g5
S'person'
p4083
sg7
(lp4084
I470
aI233
aI528
aI357
asg9
I0
sa(dp4085
g5
S'person'
p4086
sg7
(lp4087
I588
aI243
aI630
aI355
asg9
I0
sa(dp4088
g5
S'person'
p4089
sg7
(lp4090
I524
aI238
aI549
aI292
asg9
I0
sa(dp4091
g5
S'person'
p4092
sg7
(lp4093
I538
aI235
aI566
aI294
asg9
I0
sasS'kaistset06-V004-I01619'
p4094
(lp4095
(dp4096
g5
S'person'
p4097
sg7
(lp4098
I226
aI210
aI254
aI273
asg9
I0
sasS'kaistset11-V001-I00359'
p4099
(lp4100
(dp4101
g5
S'person'
p4102
sg7
(lp4103
I514
aI215
aI559
aI315
asg9
I0
sa(dp4104
g5
S'person'
p4105
sg7
(lp4106
I462
aI229
aI500
aI304
asg9
I0
sasS'kaistset08-V001-I00599'
p4107
(lp4108
(dp4109
g5
S'person'
p4110
sg7
(lp4111
I492
aI208
aI520
aI268
asg9
I0
sasS'kaistset08-V001-I00269'
p4112
(lp4113
(dp4114
g5
S'person'
p4115
sg7
(lp4116
I492
aI217
aI528
aI310
asg9
I0
sasS'kaistset08-V000-I00119'
p4117
(lp4118
(dp4119
g5
S'person'
p4120
sg7
(lp4121
I405
aI205
aI435
aI270
asg9
I0
sasS'kaistset11-V000-I00329'
p4122
(lp4123
(dp4124
g5
S'person'
p4125
sg7
(lp4126
I587
aI238
aI640
aI447
asg9
I0
sa(dp4127
g5
S'person'
p4128
sg7
(lp4129
I539
aI257
aI600
aI447
asg9
I0
sa(dp4130
g5
S'person'
p4131
sg7
(lp4132
I29
aI236
aI62
aI357
asg9
I0
sa(dp4133
g5
S'person'
p4134
sg7
(lp4135
I111
aI231
aI149
aI322
asg9
I0
sa(dp4136
g5
S'person'
p4137
sg7
(lp4138
I150
aI221
aI175
aI327
asg9
I0
sa(dp4139
g5
S'person'
p4140
sg7
(lp4141
I194
aI214
aI233
aI328
asg9
I0
sa(dp4142
g5
S'person'
p4143
sg7
(lp4144
I1
aI224
aI39
aI349
asg9
I0
sasS'kaistset08-V000-I00449'
p4145
(lp4146
(dp4147
g5
S'person'
p4148
sg7
(lp4149
I389
aI215
aI427
aI300
asg9
I0
sasS'kaistset08-V001-I00689'
p4150
(lp4151
(dp4152
g5
S'person'
p4153
sg7
(lp4154
I404
aI201
aI449
aI314
asg9
I0
sa(dp4155
g5
S'person'
p4156
sg7
(lp4157
I336
aI210
aI370
aI267
asg9
I0
sa(dp4158
g5
S'person'
p4159
sg7
(lp4160
I1
aI205
aI56
aI286
asg9
I0
sasS'kaistset06-V001-I00539'
p4161
(lp4162
(dp4163
g5
S'person'
p4164
sg7
(lp4165
I211
aI213
aI250
aI306
asg9
I0
sa(dp4166
g5
S'person'
p4167
sg7
(lp4168
I194
aI220
aI230
aI302
asg9
I0
sa(dp4169
g5
S'person'
p4170
sg7
(lp4171
I97
aI216
aI146
aI315
asg9
I0
sa(dp4172
g5
S'person'
p4173
sg7
(lp4174
I161
aI214
aI198
aI313
asg9
I0
sa(dp4175
g5
S'person'
p4176
sg7
(lp4177
I124
aI210
aI158
aI318
asg9
I0
sa(dp4178
g5
S'person'
p4179
sg7
(lp4180
I471
aI230
aI527
aI401
asg9
I0
sa(dp4181
g5
S'person'
p4182
sg7
(lp4183
I442
aI218
aI482
aI319
asg9
I0
sa(dp4184
g5
S'person'
p4185
sg7
(lp4186
I423
aI206
aI467
aI273
asg9
I0
sa(dp4187
g5
S'person'
p4188
sg7
(lp4189
I424
aI217
aI459
aI281
asg9
I0
sasS'kaistset08-V001-I00869'
p4190
(lp4191
(dp4192
g5
S'person'
p4193
sg7
(lp4194
I578
aI191
aI619
aI278
asg9
I0
sasS'kaistset10-V000-I01139'
p4195
(lp4196
(dp4197
g5
S'person'
p4198
sg7
(lp4199
I457
aI215
aI487
aI286
asg9
I0
sa(dp4200
g5
S'person'
p4201
sg7
(lp4202
I478
aI214
aI503
aI291
asg9
I0
sasS'kaistset08-V001-I02039'
p4203
(lp4204
(dp4205
g5
S'person'
p4206
sg7
(lp4207
I598
aI217
aI632
aI297
asg9
I0
sasS'kaistset07-V001-I03749'
p4208
(lp4209
(dp4210
g5
S'person'
p4211
sg7
(lp4212
I542
aI205
aI593
aI276
asg9
I0
sa(dp4213
g5
S'person'
p4214
sg7
(lp4215
I462
aI217
aI499
aI284
asg9
I0
sasS'kaistset08-V002-I02489'
p4216
(lp4217
(dp4218
g5
S'person'
p4219
sg7
(lp4220
I524
aI211
aI554
aI276
asg9
I0
sa(dp4221
g5
S'person'
p4222
sg7
(lp4223
I490
aI213
aI517
aI278
asg9
I0
sa(dp4224
g5
S'person'
p4225
sg7
(lp4226
I603
aI198
aI634
aI277
asg9
I0
sasS'kaistset08-V001-I00299'
p4227
(lp4228
(dp4229
g5
S'person'
p4230
sg7
(lp4231
I348
aI220
aI390
aI325
asg9
I0
sasS'kaistset06-V003-I00539'
p4232
(lp4233
(dp4234
g5
S'person'
p4235
sg7
(lp4236
I616
aI190
aI639
aI266
asg9
I0
sa(dp4237
g5
S'person'
p4238
sg7
(lp4239
I584
aI190
aI610
aI273
asg9
I0
sasS'kaistset06-V001-I00449'
p4240
(lp4241
(dp4242
g5
S'person'
p4243
sg7
(lp4244
I309
aI210
aI362
aI319
asg9
I0
sa(dp4245
g5
S'person'
p4246
sg7
(lp4247
I361
aI214
aI403
aI312
asg9
I0
sa(dp4248
g5
S'person'
p4249
sg7
(lp4250
I73
aI212
aI115
aI291
asg9
I0
sa(dp4251
g5
S'person'
p4252
sg7
(lp4253
I121
aI212
aI154
aI287
asg9
I0
sa(dp4254
g5
S'person'
p4255
sg7
(lp4256
I94
aI216
aI126
aI288
asg9
I0
sa(dp4257
g5
S'person'
p4258
sg7
(lp4259
I437
aI224
aI472
aI288
asg9
I0
sa(dp4260
g5
S'person'
p4261
sg7
(lp4262
I190
aI215
aI219
aI284
asg9
I0
sa(dp4263
g5
S'person'
p4264
sg7
(lp4265
I523
aI204
aI560
aI261
asg9
I0
sa(dp4266
g5
S'person'
p4267
sg7
(lp4268
I1
aI187
aI27
aI261
asg9
I0
sasS'kaistset06-V003-I02999'
p4269
(lp4270
(dp4271
g5
S'person'
p4272
sg7
(lp4273
I375
aI217
aI396
aI284
asg9
I0
sasS'kaistset06-V000-I01409'
p4274
(lp4275
(dp4276
g5
S'person'
p4277
sg7
(lp4278
I438
aI215
aI462
aI269
asg9
I0
sasS'kaistset08-V000-I01769'
p4279
(lp4280
(dp4281
g5
S'person'
p4282
sg7
(lp4283
I387
aI214
aI416
aI291
asg9
I0
sa(dp4284
g5
S'person'
p4285
sg7
(lp4286
I365
aI216
aI388
aI283
asg9
I0
sasS'kaistset06-V002-I00629'
p4287
(lp4288
(dp4289
g5
S'person'
p4290
sg7
(lp4291
I126
aI202
aI159
aI290
asg9
I0
sasS'kaistset08-V000-I02099'
p4292
(lp4293
(dp4294
g5
S'person'
p4295
sg7
(lp4296
I274
aI203
aI310
aI314
asg9
I0
sa(dp4297
g5
S'person'
p4298
sg7
(lp4299
I299
aI210
aI331
aI317
asg9
I0
sa(dp4300
g5
S'person'
p4301
sg7
(lp4302
I580
aI216
aI641
aI490
asg9
I0
sa(dp4303
g5
S'person'
p4304
sg7
(lp4305
I337
aI209
aI368
aI260
asg9
I0
sasS'kaistset08-V000-I01889'
p4306
(lp4307
(dp4308
g5
S'person'
p4309
sg7
(lp4310
I24
aI183
aI72
aI320
asg9
I0
sa(dp4311
g5
S'person'
p4312
sg7
(lp4313
I190
aI200
aI241
aI347
asg9
I0
sa(dp4314
g5
S'person'
p4315
sg7
(lp4316
I481
aI216
aI528
aI350
asg9
I0
sa(dp4317
g5
S'person'
p4318
sg7
(lp4319
I374
aI222
aI407
aI326
asg9
I0
sasS'kaistset09-V000-I01199'
p4320
(lp4321
(dp4322
g5
S'person'
p4323
sg7
(lp4324
I447
aI228
aI500
aI352
asg9
I0
sa(dp4325
g5
S'person'
p4326
sg7
(lp4327
I237
aI205
aI270
aI284
asg9
I0
sa(dp4328
g5
S'person'
p4329
sg7
(lp4330
I257
aI209
aI305
aI294
asg9
I0
sasS'kaistset11-V000-I00119'
p4331
(lp4332
(dp4333
g5
S'person'
p4334
sg7
(lp4335
I136
aI225
aI170
aI328
asg9
I0
sa(dp4336
g5
S'person'
p4337
sg7
(lp4338
I420
aI225
aI445
aI291
asg9
I0
sasS'kaistset07-V000-I02459'
p4339
(lp4340
(dp4341
g5
S'person'
p4342
sg7
(lp4343
I563
aI207
aI590
aI274
asg9
I0
sasS'kaistset07-V002-I00839'
p4344
(lp4345
(dp4346
g5
S'person'
p4347
sg7
(lp4348
I619
aI221
aI640
aI279
asg9
I0
sasS'kaistset08-V000-I01349'
p4349
(lp4350
(dp4351
g5
S'person'
p4352
sg7
(lp4353
I399
aI238
aI434
aI324
asg9
I0
sa(dp4354
g5
S'person'
p4355
sg7
(lp4356
I228
aI207
aI253
aI269
asg9
I0
sasS'kaistset10-V000-I03539'
p4357
(lp4358
(dp4359
g5
S'person'
p4360
sg7
(lp4361
I422
aI205
aI451
aI284
asg9
I0
sa(dp4362
g5
S'person'
p4363
sg7
(lp4364
I390
aI206
aI423
aI282
asg9
I0
sasS'kaistset08-V001-I02249'
p4365
(lp4366
(dp4367
g5
S'person'
p4368
sg7
(lp4369
I598
aI217
aI632
aI297
asg9
I0
sasS'kaistset07-V001-I03149'
p4370
(lp4371
(dp4372
g5
S'person'
p4373
sg7
(lp4374
I465
aI210
aI499
aI267
asg9
I0
sasS'kaistset08-V000-I02309'
p4375
(lp4376
(dp4377
g5
S'person'
p4378
sg7
(lp4379
I150
aI232
aI186
aI321
asg9
I0
sa(dp4380
g5
S'person'
p4381
sg7
(lp4382
I125
aI224
aI156
aI317
asg9
I0
sa(dp4383
g5
S'person'
p4384
sg7
(lp4385
I356
aI207
aI381
aI274
asg9
I0
sasS'kaistset08-V000-I01169'
p4386
(lp4387
(dp4388
g5
S'person'
p4389
sg7
(lp4390
I316
aI211
aI355
aI319
asg9
I0
sa(dp4391
g5
S'person'
p4392
sg7
(lp4393
I373
aI223
aI396
aI280
asg9
I0
sa(dp4394
g5
S'person'
p4395
sg7
(lp4396
I294
aI210
aI327
aI322
asg9
I0
sa(dp4397
g5
S'person'
p4398
sg7
(lp4399
I593
aI228
aI640
aI381
asg9
I0
sasS'kaistset07-V000-I01469'
p4400
(lp4401
(dp4402
g5
S'person'
p4403
sg7
(lp4404
I499
aI213
aI536
aI303
asg9
I0
sasS'kaistset06-V003-I00059'
p4405
(lp4406
(dp4407
g5
S'person'
p4408
sg7
(lp4409
I585
aI239
aI613
aI313
asg9
I0
sasS'kaistset06-V000-I01499'
p4410
(lp4411
(dp4412
g5
S'person'
p4413
sg7
(lp4414
I523
aI227
aI550
aI289
asg9
I0
sasS'kaistset09-V000-I00869'
p4415
(lp4416
(dp4417
g5
S'person'
p4418
sg7
(lp4419
I19
aI214
aI39
aI271
asg9
I0
sasS'kaistset06-V003-I00239'
p4420
(lp4421
(dp4422
g5
S'person'
p4423
sg7
(lp4424
I547
aI207
aI569
aI260
asg9
I0
sa(dp4425
g5
S'person'
p4426
sg7
(lp4427
I483
aI214
aI508
aI267
asg9
I0
sasS'kaistset06-V003-I03029'
p4428
(lp4429
(dp4430
g5
S'person'
p4431
sg7
(lp4432
I488
aI225
aI515
aI304
asg9
I0
sasS'kaistset10-V001-I02189'
p4433
(lp4434
(dp4435
g5
S'person'
p4436
sg7
(lp4437
I474
aI220
aI499
aI272
asg9
I0
sasS'kaistset08-V001-I02819'
p4438
(lp4439
(dp4440
g5
S'person'
p4441
sg7
(lp4442
I123
aI222
aI153
aI277
asg9
I0
sa(dp4443
g5
S'person'
p4444
sg7
(lp4445
I26
aI220
aI53
aI282
asg9
I0
sa(dp4446
g5
S'person'
p4447
sg7
(lp4448
I43
aI221
aI82
aI283
asg9
I0
sasS'kaistset08-V000-I02249'
p4449
(lp4450
(dp4451
g5
S'person'
p4452
sg7
(lp4453
I238
aI207
aI273
aI281
asg9
I0
sasS'kaistset06-V004-I01229'
p4454
(lp4455
(dp4456
g5
S'person'
p4457
sg7
(lp4458
I541
aI182
aI571
aI254
asg9
I0
sasS'kaistset08-V002-I00749'
p4459
(lp4460
(dp4461
g5
S'person'
p4462
sg7
(lp4463
I235
aI216
aI264
aI280
asg9
I0
sasS'kaistset11-V001-I00839'
p4464
(lp4465
(dp4466
g5
S'person'
p4467
sg7
(lp4468
I522
aI216
aI562
aI292
asg9
I0
sa(dp4469
g5
S'person'
p4470
sg7
(lp4471
I510
aI217
aI540
aI290
asg9
I0
sasS'kaistset08-V001-I02669'
p4472
(lp4473
(dp4474
g5
S'person'
p4475
sg7
(lp4476
I84
aI221
aI114
aI293
asg9
I0
sa(dp4477
g5
S'person'
p4478
sg7
(lp4479
I121
aI212
aI154
aI292
asg9
I0
sa(dp4480
g5
S'person'
p4481
sg7
(lp4482
I385
aI228
aI441
aI355
asg9
I0
sa(dp4483
g5
S'person'
p4484
sg7
(lp4485
I174
aI223
aI222
aI312
asg9
I0
sa(dp4486
g5
S'person'
p4487
sg7
(lp4488
I273
aI213
aI311
aI286
asg9
I0
sa(dp4489
g5
S'person'
p4490
sg7
(lp4491
I337
aI223
aI409
aI368
asg9
I0
sa(dp4492
g5
S'person'
p4493
sg7
(lp4494
I220
aI217
aI326
aI378
asg9
I0
sa(dp4495
g5
S'person'
p4496
sg7
(lp4497
I372
aI227
aI402
aI282
asg9
I0
sa(dp4498
g5
S'person'
p4499
sg7
(lp4500
I194
aI223
aI233
aI314
asg9
I0
sasS'kaistset07-V000-I00419'
p4501
(lp4502
(dp4503
g5
S'person'
p4504
sg7
(lp4505
I532
aI222
aI567
aI302
asg9
I0
sa(dp4506
g5
S'person'
p4507
sg7
(lp4508
I564
aI220
aI607
aI305
asg9
I0
sasS'kaistset08-V000-I01649'
p4509
(lp4510
(dp4511
g5
S'person'
p4512
sg7
(lp4513
I330
aI221
aI391
aI387
asg9
I0
sa(dp4514
g5
S'person'
p4515
sg7
(lp4516
I399
aI223
aI456
aI395
asg9
I0
sa(dp4517
g5
S'person'
p4518
sg7
(lp4519
I370
aI220
aI416
aI391
asg9
I0
sasS'kaistset08-V002-I00299'
p4520
(lp4521
(dp4522
g5
S'person'
p4523
sg7
(lp4524
I156
aI212
aI190
aI276
asg9
I0
sa(dp4525
g5
S'person'
p4526
sg7
(lp4527
I135
aI211
aI172
aI280
asg9
I0
sasS'kaistset10-V001-I00269'
p4528
(lp4529
(dp4530
g5
S'person'
p4531
sg7
(lp4532
I576
aI211
aI597
aI270
asg9
I0
sa(dp4533
g5
S'person'
p4534
sg7
(lp4535
I588
aI215
aI610
aI274
asg9
I0
sasS'kaistset10-V000-I01769'
p4536
(lp4537
(dp4538
g5
S'person'
p4539
sg7
(lp4540
I501
aI221
aI525
aI296
asg9
I0
sa(dp4541
g5
S'person'
p4542
sg7
(lp4543
I520
aI225
aI542
aI299
asg9
I0
sasS'kaistset08-V000-I01019'
p4544
(lp4545
(dp4546
g5
S'person'
p4547
sg7
(lp4548
I69
aI208
aI118
aI354
asg9
I0
sa(dp4549
g5
S'person'
p4550
sg7
(lp4551
I477
aI221
aI537
aI410
asg9
I0
sa(dp4552
g5
S'person'
p4553
sg7
(lp4554
I107
aI216
aI147
aI357
asg9
I0
sasS'kaistset11-V001-I00089'
p4555
(lp4556
(dp4557
g5
S'person'
p4558
sg7
(lp4559
I494
aI228
aI517
aI278
asg9
I0
sa(dp4560
g5
S'person'
p4561
sg7
(lp4562
I505
aI224
aI531
aI276
asg9
I0
sasS'kaistset06-V004-I01019'
p4563
(lp4564
(dp4565
g5
S'person'
p4566
sg7
(lp4567
I16
aI211
aI70
aI361
asg9
I0
sasS'kaistset10-V000-I01049'
p4568
(lp4569
(dp4570
g5
S'person'
p4571
sg7
(lp4572
I510
aI218
aI545
aI320
asg9
I0
sa(dp4573
g5
S'person'
p4574
sg7
(lp4575
I538
aI219
aI572
aI316
asg9
I0
sasS'kaistset10-V001-I02009'
p4576
(lp4577
(dp4578
g5
S'person'
p4579
sg7
(lp4580
I495
aI218
aI523
aI280
asg9
I0
sasS'kaistset08-V002-I02459'
p4581
(lp4582
(dp4583
g5
S'person'
p4584
sg7
(lp4585
I466
aI181
aI493
aI233
asg9
I0
sa(dp4586
g5
S'person'
p4587
sg7
(lp4588
I442
aI171
aI467
aI225
asg9
I0
sa(dp4589
g5
S'person'
p4590
sg7
(lp4591
I520
aI163
aI542
aI222
asg9
I0
sasS'kaistset11-V000-I01229'
p4592
(lp4593
(dp4594
g5
S'person'
p4595
sg7
(lp4596
I387
aI233
aI422
aI324
asg9
I0
sa(dp4597
g5
S'person'
p4598
sg7
(lp4599
I414
aI222
aI439
aI315
asg9
I0
sa(dp4600
g5
S'person'
p4601
sg7
(lp4602
I2
aI288
aI53
aI512
asg9
I0
sasS'kaistset11-V000-I01439'
p4603
(lp4604
(dp4605
g5
S'person'
p4606
sg7
(lp4607
I3
aI241
aI94
aI501
asg9
I0
sasS'kaistset11-V000-I01079'
p4608
(lp4609
(dp4610
g5
S'person'
p4611
sg7
(lp4612
I52
aI217
aI101
aI371
asg9
I0
sa(dp4613
g5
S'person'
p4614
sg7
(lp4615
I97
aI237
aI142
aI369
asg9
I0
sasS'kaistset06-V003-I02009'
p4616
(lp4617
(dp4618
g5
S'person'
p4619
sg7
(lp4620
I285
aI219
aI309
aI279
asg9
I0
sasS'kaistset11-V000-I00929'
p4621
(lp4622
(dp4623
g5
S'person'
p4624
sg7
(lp4625
I475
aI227
aI521
aI344
asg9
I0
sa(dp4626
g5
S'person'
p4627
sg7
(lp4628
I413
aI225
aI443
aI303
asg9
I0
sasS'kaistset06-V003-I03539'
p4629
(lp4630
(dp4631
g5
S'person'
p4632
sg7
(lp4633
I534
aI229
aI561
aI301
asg9
I0
sa(dp4634
g5
S'person'
p4635
sg7
(lp4636
I434
aI216
aI456
aI267
asg9
I0
sa(dp4637
g5
S'person'
p4638
sg7
(lp4639
I529
aI222
aI549
aI272
asg9
I0
sasS'kaistset10-V001-I00419'
p4640
(lp4641
(dp4642
g5
S'person'
p4643
sg7
(lp4644
I596
aI216
aI616
aI268
asg9
I0
sa(dp4645
g5
S'person'
p4646
sg7
(lp4647
I582
aI215
aI604
aI269
asg9
I0
sasS'kaistset06-V000-I00929'
p4648
(lp4649
(dp4650
g5
S'person'
p4651
sg7
(lp4652
I537
aI216
aI561
aI280
asg9
I0
sasS'kaistset08-V002-I00419'
p4653
(lp4654
(dp4655
g5
S'person'
p4656
sg7
(lp4657
I193
aI221
aI229
aI310
asg9
I0
sa(dp4658
g5
S'person'
p4659
sg7
(lp4660
I319
aI216
aI355
aI302
asg9
I0
sa(dp4661
g5
S'person'
p4662
sg7
(lp4663
I69
aI220
aI105
aI312
asg9
I0
sa(dp4664
g5
S'person'
p4665
sg7
(lp4666
I462
aI223
aI502
aI327
asg9
I0
sa(dp4667
g5
S'person'
p4668
sg7
(lp4669
I445
aI222
aI493
aI317
asg9
I0
sa(dp4670
g5
S'person'
p4671
sg7
(lp4672
I279
aI207
aI315
aI312
asg9
I0
sa(dp4673
g5
S'person'
p4674
sg7
(lp4675
I35
aI216
aI102
aI326
asg9
I0
sa(dp4676
g5
S'person'
p4677
sg7
(lp4678
I200
aI218
aI250
aI313
asg9
I0
sa(dp4679
g5
S'person'
p4680
sg7
(lp4681
I144
aI218
aI193
aI306
asg9
I0
sasS'kaistset08-V001-I00719'
p4682
(lp4683
(dp4684
g5
S'person'
p4685
sg7
(lp4686
I350
aI196
aI413
aI327
asg9
I0
sa(dp4687
g5
S'person'
p4688
sg7
(lp4689
I471
aI205
aI510
aI268
asg9
I0
sa(dp4690
g5
S'person'
p4691
sg7
(lp4692
I109
aI208
aI165
aI291
asg9
I0
sasS'kaistset07-V000-I01529'
p4693
(lp4694
(dp4695
g5
S'person'
p4696
sg7
(lp4697
I430
aI212
aI455
aI268
asg9
I0
sa(dp4698
g5
S'person'
p4699
sg7
(lp4700
I413
aI214
aI438
aI264
asg9
I0
sasS'kaistset07-V002-I00659'
p4701
(lp4702
(dp4703
g5
S'person'
p4704
sg7
(lp4705
I557
aI202
aI609
aI294
asg9
I0
sasS'kaistset08-V000-I01949'
p4706
(lp4707
(dp4708
g5
S'person'
p4709
sg7
(lp4710
I348
aI203
aI374
aI269
asg9
I0
sa(dp4711
g5
S'person'
p4712
sg7
(lp4713
I236
aI213
aI300
aI371
asg9
I0
sa(dp4714
g5
S'person'
p4715
sg7
(lp4716
I193
aI204
aI249
aI382
asg9
I0
sa(dp4717
g5
S'person'
p4718
sg7
(lp4719
I369
aI202
aI395
aI269
asg9
I0
sasS'kaistset06-V003-I01979'
p4720
(lp4721
(dp4722
g5
S'person'
p4723
sg7
(lp4724
I115
aI217
aI139
aI275
asg9
I0
sa(dp4725
g5
S'person'
p4726
sg7
(lp4727
I370
aI215
aI391
aI266
asg9
I0
sasS'kaistset07-V002-I00719'
p4728
(lp4729
(dp4730
g5
S'person'
p4731
sg7
(lp4732
I407
aI223
aI434
aI273
asg9
I0
sa(dp4733
g5
S'person'
p4734
sg7
(lp4735
I530
aI217
aI558
aI268
asg9
I0
sasS'kaistset07-V000-I01649'
p4736
(lp4737
(dp4738
g5
S'person'
p4739
sg7
(lp4740
I480
aI216
aI506
aI292
asg9
I0
sa(dp4741
g5
S'person'
p4742
sg7
(lp4743
I432
aI216
aI457
aI268
asg9
I0
sa(dp4744
g5
S'person'
p4745
sg7
(lp4746
I411
aI210
aI432
aI262
asg9
I0
sasS'kaistset06-V002-I00179'
p4747
(lp4748
(dp4749
g5
S'person'
p4750
sg7
(lp4751
I451
aI220
aI478
aI271
asg9
I0
sa(dp4752
g5
S'person'
p4753
sg7
(lp4754
I472
aI220
aI498
aI271
asg9
I0
sas.