(dp1
S'kaistset08-V001-I00629'
p2
(lp3
(dp4
S'name'
p5
S'person'
p6
sS'bbox'
p7
(lp8
I468
aI206
aI500
aI282
asS'difficult'
p9
I0
sa(dp10
g5
S'person'
p11
sg7
(lp12
I66
aI202
aI96
aI263
asg9
I0
sasS'kaistset07-V002-I00899'
p13
(lp14
(dp15
g5
S'person'
p16
sg7
(lp17
I564
aI222
aI601
aI298
asg9
I0
sa(dp18
g5
S'person'
p19
sg7
(lp20
I585
aI220
aI616
aI297
asg9
I0
sa(dp21
g5
S'person'
p22
sg7
(lp23
I617
aI231
aI640
aI294
asg9
I0
sasS'kaistset08-V001-I02699'
p24
(lp25
(dp26
g5
S'person'
p27
sg7
(lp28
I45
aI221
aI75
aI291
asg9
I0
sa(dp29
g5
S'person'
p30
sg7
(lp31
I198
aI218
aI270
aI363
asg9
I0
sa(dp32
g5
S'person'
p33
sg7
(lp34
I60
aI217
aI159
aI379
asg9
I0
sa(dp35
g5
S'person'
p36
sg7
(lp37
I305
aI232
aI335
aI287
asg9
I0
sa(dp38
g5
S'person'
p39
sg7
(lp40
I153
aI221
aI192
aI310
asg9
I0
sa(dp41
g5
S'person'
p42
sg7
(lp43
I427
aI222
aI466
aI283
asg9
I0
sasS'kaistset11-V000-I00179'
p44
(lp45
(dp46
g5
S'person'
p47
sg7
(lp48
I483
aI227
aI520
aI369
asg9
I0
sa(dp49
g5
S'person'
p50
sg7
(lp51
I400
aI239
aI426
aI316
asg9
I0
sa(dp52
g5
S'person'
p53
sg7
(lp54
I433
aI234
aI458
aI311
asg9
I0
sa(dp55
g5
S'person'
p56
sg7
(lp57
I103
aI222
aI132
aI320
asg9
I0
sa(dp58
g5
S'person'
p59
sg7
(lp60
I132
aI225
aI167
aI318
asg9
I0
sa(dp61
g5
S'person'
p62
sg7
(lp63
I555
aI247
aI590
aI364
asg9
I0
sasS'kaistset10-V000-I03509'
p64
(lp65
(dp66
g5
S'person'
p67
sg7
(lp68
I373
aI205
aI401
aI271
asg9
I0
sasS'kaistset06-V000-I00569'
p69
(lp70
(dp71
g5
S'person'
p72
sg7
(lp73
I223
aI213
aI255
aI276
asg9
I0
sasS'kaistset08-V001-I00239'
p74
(lp75
(dp76
g5
S'person'
p77
sg7
(lp78
I506
aI203
aI537
aI283
asg9
I0
sasS'kaistset06-V003-I01379'
p79
(lp80
(dp81
g5
S'person'
p82
sg7
(lp83
I564
aI226
aI594
aI295
asg9
I0
sa(dp84
g5
S'person'
p85
sg7
(lp86
I595
aI220
aI615
aI299
asg9
I0
sasS'kaistset11-V000-I01319'
p87
(lp88
(dp89
g5
S'person'
p90
sg7
(lp91
I509
aI241
aI556
aI377
asg9
I0
sa(dp92
g5
S'person'
p93
sg7
(lp94
I409
aI226
aI444
aI332
asg9
I0
sa(dp95
g5
S'person'
p96
sg7
(lp97
I379
aI231
aI406
aI326
asg9
I0
sasS'kaistset06-V001-I00089'
p98
(lp99
(dp100
g5
S'person'
p101
sg7
(lp102
I538
aI219
aI565
aI286
asg9
I0
sasS'kaistset07-V001-I03779'
p103
(lp104
(dp105
g5
S'person'
p106
sg7
(lp107
I393
aI207
aI426
aI266
asg9
I0
sasS'kaistset08-V000-I00839'
p108
(lp109
(dp110
g5
S'person'
p111
sg7
(lp112
I35
aI210
aI123
aI428
asg9
I0
sa(dp113
g5
S'person'
p114
sg7
(lp115
I463
aI224
aI508
aI354
asg9
I0
sa(dp116
g5
S'person'
p117
sg7
(lp118
I212
aI196
aI250
aI300
asg9
I0
sa(dp119
g5
S'person'
p120
sg7
(lp121
I182
aI201
aI210
aI297
asg9
I0
sa(dp122
g5
S'person'
p123
sg7
(lp124
I257
aI198
aI296
aI304
asg9
I0
sa(dp125
g5
S'person'
p126
sg7
(lp127
I341
aI208
aI374
aI288
asg9
I0
sasS'kaistset08-V000-I02069'
p128
(lp129
(dp130
g5
S'person'
p131
sg7
(lp132
I294
aI203
aI324
aI289
asg9
I0
sa(dp133
g5
S'person'
p134
sg7
(lp135
I313
aI216
aI339
aI284
asg9
I0
sa(dp136
g5
S'person'
p137
sg7
(lp138
I398
aI211
aI443
aI326
asg9
I0
sasS'kaistset09-V000-I00179'
p139
(lp140
(dp141
g5
S'person'
p142
sg7
(lp143
I161
aI213
aI214
aI323
asg9
I0
sasS'kaistset07-V000-I02069'
p144
(lp145
(dp146
g5
S'person'
p147
sg7
(lp148
I613
aI207
aI640
aI318
asg9
I0
sasS'kaistset08-V002-I01979'
p149
(lp150
(dp151
g5
S'person'
p152
sg7
(lp153
I54
aI209
aI99
aI286
asg9
I0
sa(dp154
g5
S'person'
p155
sg7
(lp156
I35
aI206
aI76
aI283
asg9
I0
sasS'kaistset08-V000-I01619'
p157
(lp158
(dp159
g5
S'person'
p160
sg7
(lp161
I308
aI213
aI352
aI334
asg9
I0
sa(dp162
g5
S'person'
p163
sg7
(lp164
I351
aI217
aI398
aI341
asg9
I0
sasS'kaistset11-V000-I00299'
p165
(lp166
(dp167
g5
S'person'
p168
sg7
(lp169
I451
aI233
aI486
aI337
asg9
I0
sa(dp170
g5
S'person'
p171
sg7
(lp172
I428
aI237
aI456
aI338
asg9
I0
sa(dp173
g5
S'person'
p174
sg7
(lp175
I74
aI232
aI99
aI315
asg9
I0
sa(dp176
g5
S'person'
p177
sg7
(lp178
I33
aI225
aI66
aI321
asg9
I0
sa(dp179
g5
S'person'
p180
sg7
(lp181
I161
aI225
aI186
aI299
asg9
I0
sa(dp182
g5
S'person'
p183
sg7
(lp184
I195
aI216
aI217
aI286
asg9
I0
sa(dp185
g5
S'person'
p186
sg7
(lp187
I222
aI217
aI246
aI287
asg9
I0
sasS'kaistset08-V002-I01469'
p188
(lp189
(dp190
g5
S'person'
p191
sg7
(lp192
I457
aI216
aI490
aI291
asg9
I0
sasS'kaistset11-V000-I01859'
p193
(lp194
(dp195
g5
S'person'
p196
sg7
(lp197
I248
aI243
aI281
aI328
asg9
I0
sa(dp198
g5
S'person'
p199
sg7
(lp200
I131
aI229
aI164
aI341
asg9
I0
sasS'kaistset08-V002-I01379'
p201
(lp202
(dp203
g5
S'person'
p204
sg7
(lp205
I564
aI220
aI593
aI277
asg9
I0
sasS'kaistset11-V000-I00899'
p206
(lp207
(dp208
g5
S'person'
p209
sg7
(lp210
I468
aI237
aI511
aI409
asg9
I0
sa(dp211
g5
S'person'
p212
sg7
(lp213
I414
aI229
aI456
aI412
asg9
I0
sa(dp214
g5
S'person'
p215
sg7
(lp216
I350
aI221
aI393
aI316
asg9
I0
sasS'kaistset09-V000-I02579'
p217
(lp218
(dp219
g5
S'person'
p220
sg7
(lp221
I535
aI219
aI565
aI313
asg9
I0
sa(dp222
g5
S'person'
p223
sg7
(lp224
I584
aI211
aI614
aI317
asg9
I0
sasS'kaistset11-V000-I00209'
p225
(lp226
(dp227
g5
S'person'
p228
sg7
(lp229
I18
aI219
aI83
aI390
asg9
I0
sasS'kaistset06-V003-I03119'
p230
(lp231
(dp232
g5
S'person'
p233
sg7
(lp234
I190
aI210
aI260
aI411
asg9
I0
sasS'kaistset06-V003-I03509'
p235
(lp236
(dp237
g5
S'person'
p238
sg7
(lp239
I158
aI219
aI189
aI296
asg9
I0
sa(dp240
g5
S'person'
p241
sg7
(lp242
I476
aI220
aI499
aI276
asg9
I0
sasS'kaistset11-V001-I00299'
p243
(lp244
(dp245
g5
S'person'
p246
sg7
(lp247
I381
aI203
aI407
aI259
asg9
I0
sasS'kaistset11-V000-I00629'
p248
(lp249
(dp250
g5
S'person'
p251
sg7
(lp252
I481
aI238
aI536
aI388
asg9
I0
sasS'kaistset10-V001-I04169'
p253
(lp254
(dp255
g5
S'person'
p256
sg7
(lp257
I566
aI221
aI588
aI286
asg9
I0
sasS'kaistset11-V000-I00809'
p258
(lp259
(dp260
g5
S'person'
p261
sg7
(lp262
I330
aI230
aI356
aI305
asg9
I0
sasS'kaistset08-V002-I01199'
p263
(lp264
(dp265
g5
S'person'
p266
sg7
(lp267
I105
aI194
aI138
aI251
asg9
I0
sasS'kaistset06-V003-I03479'
p268
(lp269
(dp270
g5
S'person'
p271
sg7
(lp272
I119
aI221
aI153
aI287
asg9
I0
sa(dp273
g5
S'person'
p274
sg7
(lp275
I275
aI212
aI301
aI273
asg9
I0
sasS'kaistset10-V001-I03329'
p276
(lp277
(dp278
g5
S'person'
p279
sg7
(lp280
I540
aI209
aI573
aI291
asg9
I0
sasS'kaistset07-V001-I03359'
p281
(lp282
(dp283
g5
S'person'
p284
sg7
(lp285
I480
aI212
aI520
aI271
asg9
I0
sasS'kaistset09-V000-I02909'
p286
(lp287
(dp288
g5
S'person'
p289
sg7
(lp290
I616
aI218
aI639
aI300
asg9
I0
sasS'kaistset06-V003-I01559'
p291
(lp292
(dp293
g5
S'person'
p294
sg7
(lp295
I599
aI210
aI619
aI275
asg9
I0
sasS'kaistset11-V000-I01889'
p296
(lp297
(dp298
g5
S'person'
p299
sg7
(lp300
I139
aI233
aI187
aI363
asg9
I0
sa(dp301
g5
S'person'
p302
sg7
(lp303
I393
aI220
aI417
aI282
asg9
I0
sasS'kaistset10-V001-I00359'
p304
(lp305
(dp306
g5
S'person'
p307
sg7
(lp308
I537
aI211
aI557
aI266
asg9
I0
sasS'kaistset09-V000-I00959'
p309
(lp310
(dp311
g5
S'person'
p312
sg7
(lp313
I274
aI217
aI315
aI334
asg9
I0
sa(dp314
g5
S'person'
p315
sg7
(lp316
I307
aI227
aI343
aI314
asg9
I0
sasS'kaistset11-V001-I00119'
p317
(lp318
(dp319
g5
S'person'
p320
sg7
(lp321
I395
aI223
aI427
aI283
asg9
I0
sasS'kaistset06-V000-I01139'
p322
(lp323
(dp324
g5
S'person'
p325
sg7
(lp326
I456
aI228
aI484
aI297
asg9
I0
sa(dp327
g5
S'person'
p328
sg7
(lp329
I488
aI226
aI513
aI300
asg9
I0
sasS'kaistset06-V003-I03599'
p330
(lp331
(dp332
g5
S'person'
p333
sg7
(lp334
I520
aI215
aI555
aI331
asg9
I0
sa(dp335
g5
S'person'
p336
sg7
(lp337
I599
aI227
aI631
aI345
asg9
I0
sasS'kaistset09-V000-I03329'
p338
(lp339
(dp340
g5
S'person'
p341
sg7
(lp342
I572
aI223
aI592
aI285
asg9
I0
sasS'kaistset06-V002-I01289'
p343
(lp344
(dp345
g5
S'person'
p346
sg7
(lp347
I115
aI206
aI143
aI269
asg9
I0
sasS'kaistset08-V002-I02039'
p348
(lp349
(dp350
g5
S'person'
p351
sg7
(lp352
I1
aI207
aI36
aI287
asg9
I0
sa(dp353
g5
S'person'
p354
sg7
(lp355
I572
aI216
aI619
aI336
asg9
I0
sasS'kaistset11-V000-I01769'
p356
(lp357
(dp358
g5
S'person'
p359
sg7
(lp360
I505
aI222
aI540
aI384
asg9
I0
sasS'kaistset07-V001-I01049'
p361
(lp362
(dp363
g5
S'person'
p364
sg7
(lp365
I597
aI196
aI629
aI257
asg9
I0
sasS'kaistset08-V000-I01469'
p366
(lp367
(dp368
g5
S'person'
p369
sg7
(lp370
I142
aI195
aI189
aI332
asg9
I0
sa(dp371
g5
S'person'
p372
sg7
(lp373
I397
aI215
aI431
aI304
asg9
I0
sa(dp374
g5
S'person'
p375
sg7
(lp376
I175
aI205
aI221
aI339
asg9
I0
sa(dp377
g5
S'person'
p378
sg7
(lp379
I308
aI203
aI328
aI260
asg9
I0
sasS'kaistset08-V002-I00359'
p380
(lp381
(dp382
g5
S'person'
p383
sg7
(lp384
I79
aI214
aI127
aI297
asg9
I0
sa(dp385
g5
S'person'
p386
sg7
(lp387
I37
aI212
aI85
aI296
asg9
I0
sa(dp388
g5
S'person'
p389
sg7
(lp390
I199
aI213
aI234
aI293
asg9
I0
sasS'kaistset06-V003-I03989'
p391
(lp392
(dp393
g5
S'person'
p394
sg7
(lp395
I314
aI219
aI337
aI278
asg9
I0
sasS'kaistset08-V002-I01859'
p396
(lp397
(dp398
g5
S'person'
p399
sg7
(lp400
I7
aI203
aI70
aI319
asg9
I0
sa(dp401
g5
S'person'
p402
sg7
(lp403
I1
aI206
aI45
aI325
asg9
I0
sa(dp404
g5
S'person'
p405
sg7
(lp406
I598
aI219
aI623
aI285
asg9
I0
sasS'kaistset06-V002-I01199'
p407
(lp408
(dp409
g5
S'person'
p410
sg7
(lp411
I489
aI204
aI530
aI283
asg9
I0
sasS'kaistset06-V000-I00449'
p412
(lp413
(dp414
g5
S'person'
p415
sg7
(lp416
I482
aI217
aI507
aI276
asg9
I0
sasS'kaistset08-V000-I00479'
p417
(lp418
(dp419
g5
S'person'
p420
sg7
(lp421
I496
aI218
aI551
aI368
asg9
I0
sasS'kaistset07-V000-I01679'
p422
(lp423
(dp424
g5
S'person'
p425
sg7
(lp426
I565
aI209
aI606
aI316
asg9
I0
sa(dp427
g5
S'person'
p428
sg7
(lp429
I528
aI203
aI563
aI311
asg9
I0
sasS'kaistset09-V000-I01979'
p430
(lp431
(dp432
g5
S'person'
p433
sg7
(lp434
I499
aI238
aI543
aI353
asg9
I0
sa(dp435
g5
S'person'
p436
sg7
(lp437
I536
aI211
aI584
aI345
asg9
I0
sasS'kaistset08-V002-I00329'
p438
(lp439
(dp440
g5
S'person'
p441
sg7
(lp442
I172
aI213
aI208
aI289
asg9
I0
sa(dp443
g5
S'person'
p444
sg7
(lp445
I385
aI206
aI422
aI281
asg9
I0
sa(dp446
g5
S'person'
p447
sg7
(lp448
I42
aI214
aI89
aI287
asg9
I0
sa(dp449
g5
S'person'
p450
sg7
(lp451
I200
aI220
aI234
aI290
asg9
I0
sa(dp452
g5
S'person'
p453
sg7
(lp454
I12
aI212
aI57
aI285
asg9
I0
sasS'kaistset08-V000-I00059'
p455
(lp456
(dp457
g5
S'person'
p458
sg7
(lp459
I342
aI212
aI377
aI274
asg9
I0
sasS'kaistset08-V000-I02309'
p460
(lp461
(dp462
g5
S'person'
p463
sg7
(lp464
I150
aI232
aI186
aI321
asg9
I0
sa(dp465
g5
S'person'
p466
sg7
(lp467
I125
aI224
aI156
aI317
asg9
I0
sa(dp468
g5
S'person'
p469
sg7
(lp470
I356
aI207
aI381
aI274
asg9
I0
sasS'kaistset08-V000-I01979'
p471
(lp472
(dp473
g5
S'person'
p474
sg7
(lp475
I318
aI205
aI349
aI272
asg9
I0
sa(dp476
g5
S'person'
p477
sg7
(lp478
I71
aI211
aI163
aI442
asg9
I0
sa(dp479
g5
S'person'
p480
sg7
(lp481
I8
aI210
aI83
aI455
asg9
I0
sa(dp482
g5
S'person'
p483
sg7
(lp484
I337
aI203
aI363
aI270
asg9
I0
sasS'kaistset11-V000-I00029'
p485
(lp486
(dp487
g5
S'person'
p488
sg7
(lp489
I37
aI240
aI91
aI411
asg9
I0
sa(dp490
g5
S'person'
p491
sg7
(lp492
I443
aI234
aI468
aI309
asg9
I0
sa(dp493
g5
S'person'
p494
sg7
(lp495
I421
aI228
aI453
aI311
asg9
I0
sa(dp496
g5
S'person'
p497
sg7
(lp498
I223
aI231
aI243
aI287
asg9
I0
sasS'kaistset10-V001-I01469'
p499
(lp500
(dp501
g5
S'person'
p502
sg7
(lp503
I534
aI228
aI597
aI395
asg9
I0
sasS'kaistset11-V000-I01349'
p504
(lp505
(dp506
g5
S'person'
p507
sg7
(lp508
I393
aI253
aI458
aI425
asg9
I0
sa(dp509
g5
S'person'
p510
sg7
(lp511
I329
aI235
aI371
aI366
asg9
I0
sa(dp512
g5
S'person'
p513
sg7
(lp514
I265
aI229
aI308
aI362
asg9
I0
sasS'kaistset06-V001-I00599'
p515
(lp516
(dp517
g5
S'person'
p518
sg7
(lp519
I108
aI227
aI205
aI418
asg9
I0
sa(dp520
g5
S'person'
p521
sg7
(lp522
I207
aI216
aI255
aI289
asg9
I0
sasS'kaistset08-V001-I02369'
p523
(lp524
(dp525
g5
S'person'
p526
sg7
(lp527
I490
aI225
aI524
aI305
asg9
I0
sasS'kaistset07-V002-I00239'
p528
(lp529
(dp530
g5
S'person'
p531
sg7
(lp532
I585
aI218
aI623
aI282
asg9
I0
sa(dp533
g5
S'person'
p534
sg7
(lp535
I534
aI218
aI573
aI284
asg9
I0
sasS'kaistset11-V000-I01949'
p536
(lp537
(dp538
g5
S'person'
p539
sg7
(lp540
I484
aI232
aI535
aI379
asg9
I0
sasS'kaistset06-V003-I01589'
p541
(lp542
(dp543
g5
S'person'
p544
sg7
(lp545
I605
aI223
aI627
aI282
asg9
I0
sasS'kaistset08-V002-I01499'
p546
(lp547
(dp548
g5
S'person'
p549
sg7
(lp550
I559
aI219
aI611
aI336
asg9
I0
sa(dp551
g5
S'person'
p552
sg7
(lp553
I495
aI214
aI518
aI271
asg9
I0
sasS'kaistset11-V000-I00149'
p554
(lp555
(dp556
g5
S'person'
p557
sg7
(lp558
I5
aI232
aI62
aI373
asg9
I0
sa(dp559
g5
S'person'
p560
sg7
(lp561
I426
aI225
aI456
aI318
asg9
I0
sa(dp562
g5
S'person'
p563
sg7
(lp564
I471
aI236
aI494
aI316
asg9
I0
sasS'kaistset08-V002-I01409'
p565
(lp566
(dp567
g5
S'person'
p568
sg7
(lp569
I558
aI216
aI588
aI281
asg9
I0
sasS'kaistset08-V000-I01379'
p570
(lp571
(dp572
g5
S'person'
p573
sg7
(lp574
I472
aI239
aI524
aI377
asg9
I0
sa(dp575
g5
S'person'
p576
sg7
(lp577
I219
aI205
aI248
aI276
asg9
I0
sasS'kaistset06-V003-I00989'
p578
(lp579
(dp580
g5
S'person'
p581
sg7
(lp582
I563
aI216
aI588
aI280
asg9
I0
sasS'kaistset11-V001-I00239'
p583
(lp584
(dp585
g5
S'person'
p586
sg7
(lp587
I1
aI212
aI64
aI335
asg9
I0
sasS'kaistset08-V000-I02159'
p588
(lp589
(dp590
g5
S'person'
p591
sg7
(lp592
I60
aI230
aI137
aI452
asg9
I0
sa(dp593
g5
S'person'
p594
sg7
(lp595
I124
aI231
aI186
aI452
asg9
I0
sasS'kaistset07-V001-I03179'
p596
(lp597
(dp598
g5
S'person'
p599
sg7
(lp600
I584
aI195
aI627
aI274
asg9
I0
sasS'kaistset08-V000-I01259'
p601
(lp602
(dp603
g5
S'person'
p604
sg7
(lp605
I384
aI249
aI412
aI322
asg9
I0
sasS'kaistset11-V000-I00569'
p606
(lp607
(dp608
g5
S'person'
p609
sg7
(lp610
I451
aI250
aI477
aI327
asg9
I0
sasS'kaistset06-V003-I00809'
p611
(lp612
(dp613
g5
S'person'
p614
sg7
(lp615
I589
aI189
aI619
aI275
asg9
I0
sasS'kaistset08-V002-I01889'
p616
(lp617
(dp618
g5
S'person'
p619
sg7
(lp620
I64
aI201
aI106
aI285
asg9
I0
sasS'kaistset10-V001-I04019'
p621
(lp622
(dp623
g5
S'person'
p624
sg7
(lp625
I530
aI212
aI557
aI268
asg9
I0
sasS'kaistset08-V000-I02279'
p626
(lp627
(dp628
g5
S'person'
p629
sg7
(lp630
I214
aI220
aI249
aI295
asg9
I0
sasS'kaistset08-V002-I02369'
p631
(lp632
(dp633
g5
S'person'
p634
sg7
(lp635
I534
aI213
aI564
aI295
asg9
I0
sa(dp636
g5
S'person'
p637
sg7
(lp638
I568
aI211
aI608
aI288
asg9
I0
sasS'kaistset08-V001-I02879'
p639
(lp640
(dp641
g5
S'person'
p642
sg7
(lp643
I61
aI217
aI90
aI272
asg9
I0
sa(dp644
g5
S'person'
p645
sg7
(lp646
I553
aI216
aI573
aI282
asg9
I0
sasS'kaistset06-V003-I01769'
p647
(lp648
(dp649
g5
S'person'
p650
sg7
(lp651
I511
aI214
aI541
aI301
asg9
I0
sasS'kaistset06-V003-I02549'
p652
(lp653
(dp654
g5
S'person'
p655
sg7
(lp656
I225
aI230
aI252
aI302
asg9
I0
sa(dp657
g5
S'person'
p658
sg7
(lp659
I247
aI225
aI281
aI307
asg9
I0
sasS'kaistset08-V001-I01379'
p660
(lp661
(dp662
g5
S'person'
p663
sg7
(lp664
I120
aI213
aI175
aI303
asg9
I0
sasS'kaistset11-V000-I00839'
p665
(lp666
(dp667
g5
S'person'
p668
sg7
(lp669
I341
aI234
aI370
aI326
asg9
I0
sa(dp670
g5
S'person'
p671
sg7
(lp672
I323
aI222
aI348
aI323
asg9
I0
sa(dp673
g5
S'person'
p674
sg7
(lp675
I265
aI220
aI302
aI280
asg9
I0
sasS'kaistset10-V000-I03959'
p676
(lp677
(dp678
g5
S'person'
p679
sg7
(lp680
I595
aI211
aI627
aI307
asg9
I0
sasS'kaistset09-V000-I02939'
p681
(lp682
(dp683
g5
S'person'
p684
sg7
(lp685
I543
aI212
aI564
aI268
asg9
I0
sasS'kaistset11-V000-I01409'
p686
(lp687
(dp688
g5
S'person'
p689
sg7
(lp690
I403
aI246
aI457
aI400
asg9
I0
sasS'kaistset08-V000-I00959'
p691
(lp692
(dp693
g5
S'person'
p694
sg7
(lp695
I176
aI208
aI203
aI286
asg9
I0
sa(dp696
g5
S'person'
p697
sg7
(lp698
I335
aI224
aI365
aI288
asg9
I0
sa(dp699
g5
S'person'
p700
sg7
(lp701
I147
aI203
aI189
aI292
asg9
I0
sasS'kaistset09-V000-I03149'
p702
(lp703
(dp704
g5
S'person'
p705
sg7
(lp706
I370
aI220
aI402
aI283
asg9
I0
sasS'kaistset08-V001-I02459'
p707
(lp708
(dp709
g5
S'person'
p710
sg7
(lp711
I293
aI220
aI336
aI318
asg9
I0
sa(dp712
g5
S'person'
p713
sg7
(lp714
I473
aI227
aI503
aI307
asg9
I0
sa(dp715
g5
S'person'
p716
sg7
(lp717
I516
aI221
aI549
aI310
asg9
I0
sa(dp718
g5
S'person'
p719
sg7
(lp720
I68
aI218
aI123
aI327
asg9
I0
sa(dp721
g5
S'person'
p722
sg7
(lp723
I340
aI220
aI384
aI293
asg9
I0
sasS'kaistset09-V000-I01019'
p724
(lp725
(dp726
g5
S'person'
p727
sg7
(lp728
I392
aI222
aI429
aI315
asg9
I0
sa(dp729
g5
S'person'
p730
sg7
(lp731
I176
aI210
aI198
aI277
asg9
I0
sasS'kaistset08-V002-I02069'
p732
(lp733
(dp734
g5
S'person'
p735
sg7
(lp736
I58
aI213
aI102
aI301
asg9
I0
sa(dp737
g5
S'person'
p738
sg7
(lp739
I38
aI214
aI75
aI296
asg9
I0
sasS'kaistset06-V002-I00389'
p740
(lp741
(dp742
g5
S'person'
p743
sg7
(lp744
I76
aI246
aI120
aI316
asg9
I0
sasS'kaistset08-V001-I02519'
p745
(lp746
(dp747
g5
S'person'
p748
sg7
(lp749
I179
aI220
aI213
aI303
asg9
I0
sa(dp750
g5
S'person'
p751
sg7
(lp752
I341
aI221
aI371
aI306
asg9
I0
sa(dp753
g5
S'person'
p754
sg7
(lp755
I378
aI220
aI411
aI309
asg9
I0
sa(dp756
g5
S'person'
p757
sg7
(lp758
I299
aI212
aI344
aI312
asg9
I0
sa(dp759
g5
S'person'
p760
sg7
(lp761
I210
aI216
aI264
aI344
asg9
I0
sa(dp762
g5
S'person'
p763
sg7
(lp764
I87
aI214
aI194
aI389
asg9
I0
sasS'kaistset11-V000-I01049'
p765
(lp766
(dp767
g5
S'person'
p768
sg7
(lp769
I117
aI235
aI162
aI364
asg9
I0
sa(dp770
g5
S'person'
p771
sg7
(lp772
I173
aI219
aI210
aI333
asg9
I0
sa(dp773
g5
S'person'
p774
sg7
(lp775
I210
aI233
aI242
aI331
asg9
I0
sasS'kaistset06-V004-I01469'
p776
(lp777
(dp778
g5
S'person'
p779
sg7
(lp780
I335
aI201
aI364
aI259
asg9
I0
sasS'kaistset06-V003-I02609'
p781
(lp782
(dp783
g5
S'person'
p784
sg7
(lp785
I68
aI218
aI116
aI344
asg9
I0
sasS'kaistset07-V002-I01319'
p786
(lp787
(dp788
g5
S'person'
p789
sg7
(lp790
I454
aI206
aI480
aI261
asg9
I0
sasS'kaistset06-V003-I02309'
p791
(lp792
(dp793
g5
S'person'
p794
sg7
(lp795
I421
aI223
aI471
aI358
asg9
I0
sa(dp796
g5
S'person'
p797
sg7
(lp798
I480
aI240
aI518
aI358
asg9
I0
sasS'kaistset06-V002-I01499'
p799
(lp800
(dp801
g5
S'person'
p802
sg7
(lp803
I394
aI207
aI426
aI264
asg9
I0
sasS'kaistset08-V002-I00089'
p804
(lp805
(dp806
g5
S'person'
p807
sg7
(lp808
I587
aI211
aI619
aI283
asg9
I0
sa(dp809
g5
S'person'
p810
sg7
(lp811
I570
aI206
aI598
aI277
asg9
I0
sasS'kaistset11-V000-I01169'
p812
(lp813
(dp814
g5
S'person'
p815
sg7
(lp816
I101
aI221
aI139
aI368
asg9
I0
sa(dp817
g5
S'person'
p818
sg7
(lp819
I138
aI232
aI169
aI316
asg9
I0
sa(dp820
g5
S'person'
p821
sg7
(lp822
I334
aI227
aI368
aI297
asg9
I0
sa(dp823
g5
S'person'
p824
sg7
(lp825
I359
aI220
aI381
aI297
asg9
I0
sasS'kaistset06-V004-I00149'
p826
(lp827
(dp828
g5
S'person'
p829
sg7
(lp830
I449
aI197
aI499
aI288
asg9
I0
sasS'kaistset08-V001-I00839'
p831
(lp832
(dp833
g5
S'person'
p834
sg7
(lp835
I500
aI197
aI545
aI284
asg9
I0
sasS'kaistset07-V000-I00959'
p836
(lp837
(dp838
g5
S'person'
p839
sg7
(lp840
I566
aI217
aI589
aI274
asg9
I0
sasS'kaistset06-V001-I00419'
p841
(lp842
(dp843
g5
S'person'
p844
sg7
(lp845
I431
aI212
aI486
aI314
asg9
I0
sa(dp846
g5
S'person'
p847
sg7
(lp848
I476
aI215
aI513
aI309
asg9
I0
sa(dp849
g5
S'person'
p850
sg7
(lp851
I93
aI186
aI132
aI249
asg9
I0
sa(dp852
g5
S'person'
p853
sg7
(lp854
I176
aI212
aI208
aI279
asg9
I0
sa(dp855
g5
S'person'
p856
sg7
(lp857
I216
aI209
aI248
aI266
asg9
I0
sa(dp858
g5
S'person'
p859
sg7
(lp860
I194
aI209
aI223
aI273
asg9
I0
sa(dp861
g5
S'person'
p862
sg7
(lp863
I526
aI219
aI561
aI283
asg9
I0
sa(dp864
g5
S'person'
p865
sg7
(lp866
I301
aI216
aI326
aI271
asg9
I0
sasS'kaistset06-V000-I00479'
p867
(lp868
(dp869
g5
S'person'
p870
sg7
(lp871
I568
aI212
aI594
aI273
asg9
I0
sa(dp872
g5
S'person'
p873
sg7
(lp874
I547
aI215
aI569
aI274
asg9
I0
sasS'kaistset08-V000-I01439'
p875
(lp876
(dp877
g5
S'person'
p878
sg7
(lp879
I220
aI204
aI249
aI277
asg9
I0
sa(dp880
g5
S'person'
p881
sg7
(lp882
I242
aI207
aI268
aI282
asg9
I0
sasS'kaistset08-V002-I00569'
p883
(lp884
(dp885
g5
S'person'
p886
sg7
(lp887
I176
aI220
aI242
aI331
asg9
I0
sa(dp888
g5
S'person'
p889
sg7
(lp890
I513
aI224
aI563
aI334
asg9
I0
sa(dp891
g5
S'person'
p892
sg7
(lp893
I500
aI231
aI551
aI333
asg9
I0
sasS'kaistset09-V000-I01169'
p894
(lp895
(dp896
g5
S'person'
p897
sg7
(lp898
I341
aI216
aI392
aI330
asg9
I0
sa(dp899
g5
S'person'
p900
sg7
(lp901
I195
aI213
aI225
aI275
asg9
I0
sa(dp902
g5
S'person'
p903
sg7
(lp904
I227
aI219
aI265
aI285
asg9
I0
sasS'kaistset07-V000-I02039'
p905
(lp906
(dp907
g5
S'person'
p908
sg7
(lp909
I608
aI220
aI639
aI290
asg9
I0
sa(dp910
g5
S'person'
p911
sg7
(lp912
I460
aI218
aI483
aI283
asg9
I0
sasS'kaistset06-V002-I01229'
p913
(lp914
(dp915
g5
S'person'
p916
sg7
(lp917
I528
aI211
aI586
aI328
asg9
I0
sa(dp918
g5
S'person'
p919
sg7
(lp920
I595
aI202
aI641
aI308
asg9
I0
sasS'kaistset08-V001-I02429'
p921
(lp922
(dp923
g5
S'person'
p924
sg7
(lp925
I339
aI219
aI373
aI299
asg9
I0
sa(dp926
g5
S'person'
p927
sg7
(lp928
I233
aI277
aI327
aI512
asg9
I0
sa(dp929
g5
S'person'
p930
sg7
(lp931
I358
aI220
aI408
aI328
asg9
I0
sa(dp932
g5
S'person'
p933
sg7
(lp934
I403
aI226
aI447
aI299
asg9
I0
sasS'kaistset11-V000-I01829'
p935
(lp936
(dp937
g5
S'person'
p938
sg7
(lp939
I310
aI227
aI339
aI295
asg9
I0
sa(dp940
g5
S'person'
p941
sg7
(lp942
I226
aI215
aI248
aI301
asg9
I0
sa(dp943
g5
S'person'
p944
sg7
(lp945
I171
aI220
aI200
aI301
asg9
I0
sasS'kaistset06-V003-I00419'
p946
(lp947
(dp948
g5
S'person'
p949
sg7
(lp950
I532
aI214
aI557
aI280
asg9
I0
sasS'kaistset11-V000-I01919'
p951
(lp952
(dp953
g5
S'person'
p954
sg7
(lp955
I325
aI232
aI365
aI318
asg9
I0
sasS'kaistset10-V001-I01349'
p956
(lp957
(dp958
g5
S'person'
p959
sg7
(lp960
I381
aI234
aI414
aI317
asg9
I0
sasS'kaistset06-V000-I00059'
p961
(lp962
(dp963
g5
S'person'
p964
sg7
(lp965
I565
aI234
aI590
aI294
asg9
I0
sasS'kaistset06-V003-I00929'
p966
(lp967
(dp968
g5
S'person'
p969
sg7
(lp970
I589
aI214
aI609
aI279
asg9
I0
sa(dp971
g5
S'person'
p972
sg7
(lp973
I454
aI213
aI482
aI286
asg9
I0
sa(dp974
g5
S'person'
p975
sg7
(lp976
I471
aI214
aI498
aI287
asg9
I0
sa(dp977
g5
S'person'
p978
sg7
(lp979
I496
aI214
aI523
aI285
asg9
I0
sasS'kaistset08-V000-I01199'
p980
(lp981
(dp982
g5
S'person'
p983
sg7
(lp984
I235
aI198
aI300
aI376
asg9
I0
sa(dp985
g5
S'person'
p986
sg7
(lp987
I377
aI223
aI405
aI287
asg9
I0
sa(dp988
g5
S'person'
p989
sg7
(lp990
I185
aI198
aI249
aI370
asg9
I0
sasS'kaistset07-V002-I00569'
p991
(lp992
(dp993
g5
S'person'
p994
sg7
(lp995
I483
aI201
aI516
aI261
asg9
I0
sasS'kaistset08-V001-I02909'
p996
(lp997
(dp998
g5
S'person'
p999
sg7
(lp1000
I32
aI221
aI60
aI276
asg9
I0
sa(dp1001
g5
S'person'
p1002
sg7
(lp1003
I576
aI219
aI596
aI285
asg9
I0
sasS'kaistset08-V001-I02399'
p1004
(lp1005
(dp1006
g5
S'person'
p1007
sg7
(lp1008
I409
aI222
aI443
aI302
asg9
I0
sa(dp1009
g5
S'person'
p1010
sg7
(lp1011
I551
aI271
aI641
aI513
asg9
I0
sa(dp1012
g5
S'person'
p1013
sg7
(lp1014
I450
aI217
aI496
aI335
asg9
I0
sasS'kaistset08-V000-I02129'
p1015
(lp1016
(dp1017
g5
S'person'
p1018
sg7
(lp1019
I196
aI204
aI249
aI355
asg9
I0
sa(dp1020
g5
S'person'
p1021
sg7
(lp1022
I237
aI205
aI284
aI356
asg9
I0
sasS'kaistset08-V000-I01289'
p1023
(lp1024
(dp1025
g5
S'person'
p1026
sg7
(lp1027
I382
aI227
aI410
aI300
asg9
I0
sasS'kaistset11-V000-I00599'
p1028
(lp1029
(dp1030
g5
S'person'
p1031
sg7
(lp1032
I460
aI238
aI494
aI345
asg9
I0
sasS'kaistset08-V001-I02639'
p1033
(lp1034
(dp1035
g5
S'person'
p1036
sg7
(lp1037
I28
aI227
aI56
aI288
asg9
I0
sa(dp1038
g5
S'person'
p1039
sg7
(lp1040
I126
aI221
aI156
aI296
asg9
I0
sa(dp1041
g5
S'person'
p1042
sg7
(lp1043
I160
aI212
aI193
aI295
asg9
I0
sa(dp1044
g5
S'person'
p1045
sg7
(lp1046
I483
aI217
aI512
aI290
asg9
I0
sa(dp1047
g5
S'person'
p1048
sg7
(lp1049
I65
aI222
aI88
aI281
asg9
I0
sa(dp1050
g5
S'person'
p1051
sg7
(lp1052
I240
aI224
aI299
aI356
asg9
I0
sa(dp1053
g5
S'person'
p1054
sg7
(lp1055
I474
aI222
aI539
aI367
asg9
I0
sa(dp1056
g5
S'person'
p1057
sg7
(lp1058
I1
aI230
aI57
aI394
asg9
I0
sa(dp1059
g5
S'person'
p1060
sg7
(lp1061
I444
aI224
aI474
aI279
asg9
I0
sasS'kaistset11-V001-I00209'
p1062
(lp1063
(dp1064
g5
S'person'
p1065
sg7
(lp1066
I187
aI209
aI221
aI289
asg9
I0
sasS'kaistset08-V000-I01109'
p1067
(lp1068
(dp1069
g5
S'person'
p1070
sg7
(lp1071
I315
aI209
aI343
aI267
asg9
I0
sa(dp1072
g5
S'person'
p1073
sg7
(lp1074
I342
aI207
aI365
aI264
asg9
I0
sa(dp1075
g5
S'person'
p1076
sg7
(lp1077
I300
aI207
aI320
aI270
asg9
I0
sasS'kaistset11-V000-I00239'
p1078
(lp1079
(dp1080
g5
S'person'
p1081
sg7
(lp1082
I128
aI227
aI153
aI293
asg9
I0
sasS'kaistset07-V000-I02459'
p1083
(lp1084
(dp1085
g5
S'person'
p1086
sg7
(lp1087
I563
aI207
aI590
aI274
asg9
I0
sasS'kaistset09-V000-I01949'
p1088
(lp1089
(dp1090
g5
S'person'
p1091
sg7
(lp1092
I550
aI222
aI582
aI303
asg9
I0
sa(dp1093
g5
S'person'
p1094
sg7
(lp1095
I578
aI221
aI610
aI309
asg9
I0
sasS'kaistset08-V001-I01349'
p1096
(lp1097
(dp1098
g5
S'person'
p1099
sg7
(lp1100
I234
aI213
aI264
aI268
asg9
I0
sasS'kaistset06-V002-I01529'
p1101
(lp1102
(dp1103
g5
S'person'
p1104
sg7
(lp1105
I486
aI214
aI523
aI282
asg9
I0
sasS'kaistset06-V004-I00119'
p1106
(lp1107
(dp1108
g5
S'person'
p1109
sg7
(lp1110
I426
aI193
aI477
aI284
asg9
I0
sasS'kaistset11-V000-I01289'
p1111
(lp1112
(dp1113
g5
S'person'
p1114
sg7
(lp1115
I524
aI234
aI564
aI347
asg9
I0
sa(dp1116
g5
S'person'
p1117
sg7
(lp1118
I410
aI229
aI433
aI307
asg9
I0
sa(dp1119
g5
S'person'
p1120
sg7
(lp1121
I388
aI233
aI408
aI301
asg9
I0
sasS'kaistset08-V000-I02549'
p1122
(lp1123
(dp1124
g5
S'person'
p1125
sg7
(lp1126
I69
aI206
aI154
aI459
asg9
I0
sa(dp1127
g5
S'person'
p1128
sg7
(lp1129
I20
aI225
aI85
aI463
asg9
I0
sasS'kaistset06-V000-I00599'
p1130
(lp1131
(dp1132
g5
S'person'
p1133
sg7
(lp1134
I101
aI225
aI135
aI295
asg9
I0
sasS'kaistset06-V004-I02039'
p1135
(lp1136
(dp1137
g5
S'person'
p1138
sg7
(lp1139
I543
aI198
aI566
aI256
asg9
I0
sa(dp1140
g5
S'person'
p1141
sg7
(lp1142
I522
aI201
aI545
aI258
asg9
I0
sasS'kaistset10-V000-I04229'
p1143
(lp1144
(dp1145
g5
S'person'
p1146
sg7
(lp1147
I563
aI212
aI589
aI274
asg9
I0
sasS'kaistset06-V003-I01829'
p1148
(lp1149
(dp1150
g5
S'person'
p1151
sg7
(lp1152
I593
aI227
aI618
aI285
asg9
I0
sasS'kaistset11-V000-I02009'
p1153
(lp1154
(dp1155
g5
S'person'
p1156
sg7
(lp1157
I513
aI233
aI540
aI329
asg9
I0
sasS'kaistset08-V002-I00209'
p1158
(lp1159
(dp1160
g5
S'person'
p1161
sg7
(lp1162
I456
aI205
aI490
aI269
asg9
I0
sasS'kaistset10-V000-I03929'
p1163
(lp1164
(dp1165
g5
S'person'
p1166
sg7
(lp1167
I535
aI212
aI563
aI287
asg9
I0
sa(dp1168
g5
S'person'
p1169
sg7
(lp1170
I46
aI215
aI87
aI318
asg9
I0
sasS'kaistset07-V001-I01889'
p1171
(lp1172
(dp1173
g5
S'person'
p1174
sg7
(lp1175
I350
aI209
aI481
aI285
asg9
I0
sasS'kaistset06-V002-I01679'
p1176
(lp1177
(dp1178
g5
S'person'
p1179
sg7
(lp1180
I487
aI185
aI517
aI249
asg9
I0
sa(dp1181
g5
S'person'
p1182
sg7
(lp1183
I553
aI190
aI592
aI258
asg9
I0
sasS'kaistset08-V000-I02489'
p1184
(lp1185
(dp1186
g5
S'person'
p1187
sg7
(lp1188
I259
aI207
aI294
aI292
asg9
I0
sa(dp1189
g5
S'person'
p1190
sg7
(lp1191
I231
aI209
aI260
aI292
asg9
I0
sa(dp1192
g5
S'person'
p1193
sg7
(lp1194
I216
aI212
aI238
aI285
asg9
I0
sasS'kaistset10-V001-I02849'
p1195
(lp1196
(dp1197
g5
S'person'
p1198
sg7
(lp1199
I277
aI211
aI302
aI284
asg9
I0
sasS'kaistset09-V000-I01049'
p1200
(lp1201
(dp1202
g5
S'person'
p1203
sg7
(lp1204
I217
aI220
aI264
aI323
asg9
I0
sasS'kaistset06-V004-I01739'
p1205
(lp1206
(dp1207
g5
S'person'
p1208
sg7
(lp1209
I575
aI213
aI604
aI286
asg9
I0
sasS'kaistset08-V002-I00029'
p1210
(lp1211
(dp1212
g5
S'person'
p1213
sg7
(lp1214
I61
aI224
aI103
aI284
asg9
I0
sa(dp1215
g5
S'person'
p1216
sg7
(lp1217
I545
aI209
aI572
aI277
asg9
I0
sasS'kaistset08-V002-I00929'
p1218
(lp1219
(dp1220
g5
S'person'
p1221
sg7
(lp1222
I225
aI217
aI253
aI296
asg9
I0
sasS'kaistset11-V000-I00659'
p1223
(lp1224
(dp1225
g5
S'person'
p1226
sg7
(lp1227
I513
aI240
aI571
aI450
asg9
I0
sasS'kaistset08-V002-I00389'
p1228
(lp1229
(dp1230
g5
S'person'
p1231
sg7
(lp1232
I123
aI218
aI176
aI304
asg9
I0
sa(dp1233
g5
S'person'
p1234
sg7
(lp1235
I77
aI216
aI123
aI300
asg9
I0
sasS'kaistset07-V001-I02399'
p1236
(lp1237
(dp1238
g5
S'person'
p1239
sg7
(lp1240
I592
aI216
aI637
aI324
asg9
I0
sasS'kaistset10-V001-I02879'
p1241
(lp1242
(dp1243
g5
S'person'
p1244
sg7
(lp1245
I101
aI202
aI148
aI309
asg9
I0
sasS'kaistset06-V001-I00569'
p1246
(lp1247
(dp1248
g5
S'person'
p1249
sg7
(lp1250
I63
aI215
aI119
aI331
asg9
I0
sa(dp1251
g5
S'person'
p1252
sg7
(lp1253
I137
aI213
aI177
aI328
asg9
I0
sa(dp1254
g5
S'person'
p1255
sg7
(lp1256
I102
aI212
aI144
aI328
asg9
I0
sa(dp1257
g5
S'person'
p1258
sg7
(lp1259
I363
aI226
aI430
aI397
asg9
I0
sa(dp1260
g5
S'person'
p1261
sg7
(lp1262
I409
aI215
aI447
aI286
asg9
I0
sasS'kaistset08-V001-I00809'
p1263
(lp1264
(dp1265
g5
S'person'
p1266
sg7
(lp1267
I430
aI202
aI475
aI289
asg9
I0
sasS'kaistset08-V001-I00749'
p1268
(lp1269
(dp1270
g5
S'person'
p1271
sg7
(lp1272
I588
aI205
aI626
aI268
asg9
I0
sasS'kaistset06-V001-I00209'
p1273
(lp1274
(dp1275
g5
S'person'
p1276
sg7
(lp1277
I507
aI209
aI536
aI287
asg9
I0
sa(dp1278
g5
S'person'
p1279
sg7
(lp1280
I541
aI208
aI576
aI287
asg9
I0
sasS'kaistset08-V002-I01529'
p1281
(lp1282
(dp1283
g5
S'person'
p1284
sg7
(lp1285
I519
aI209
aI546
aI274
asg9
I0
sa(dp1286
g5
S'person'
p1287
sg7
(lp1288
I545
aI214
aI565
aI269
asg9
I0
sa(dp1289
g5
S'person'
p1290
sg7
(lp1291
I557
aI212
aI586
aI273
asg9
I0
sasS'kaistset08-V001-I02549'
p1292
(lp1293
(dp1294
g5
S'person'
p1295
sg7
(lp1296
I121
aI215
aI146
aI279
asg9
I0
sa(dp1297
g5
S'person'
p1298
sg7
(lp1299
I141
aI219
aI170
aI296
asg9
I0
sa(dp1300
g5
S'person'
p1301
sg7
(lp1302
I396
aI215
aI448
aI309
asg9
I0
sa(dp1303
g5
S'person'
p1304
sg7
(lp1305
I174
aI215
aI217
aI288
asg9
I0
sa(dp1306
g5
S'person'
p1307
sg7
(lp1308
I312
aI210
aI366
aI338
asg9
I0
sa(dp1309
g5
S'person'
p1310
sg7
(lp1311
I255
aI208
aI331
aI382
asg9
I0
sasS'kaistset11-V000-I01019'
p1312
(lp1313
(dp1314
g5
S'person'
p1315
sg7
(lp1316
I177
aI241
aI234
aI367
asg9
I0
sasS'kaistset08-V000-I00869'
p1317
(lp1318
(dp1319
g5
S'person'
p1320
sg7
(lp1321
I229
aI212
aI275
aI328
asg9
I0
sa(dp1322
g5
S'person'
p1323
sg7
(lp1324
I159
aI210
aI201
aI324
asg9
I0
sa(dp1325
g5
S'person'
p1326
sg7
(lp1327
I289
aI197
aI346
aI325
asg9
I0
sa(dp1328
g5
S'person'
p1329
sg7
(lp1330
I340
aI208
aI374
aI294
asg9
I0
sa(dp1331
g5
S'person'
p1332
sg7
(lp1333
I555
aI214
aI577
aI291
asg9
I0
sa(dp1334
g5
S'person'
p1335
sg7
(lp1336
I536
aI219
aI561
aI287
asg9
I0
sasS'kaistset11-V000-I00059'
p1337
(lp1338
(dp1339
g5
S'person'
p1340
sg7
(lp1341
I480
aI237
aI513
aI341
asg9
I0
sa(dp1342
g5
S'person'
p1343
sg7
(lp1344
I452
aI233
aI493
aI344
asg9
I0
sa(dp1345
g5
S'person'
p1346
sg7
(lp1347
I208
aI229
aI229
aI290
asg9
I0
sa(dp1348
g5
S'person'
p1349
sg7
(lp1350
I1
aI255
aI27
aI456
asg9
I0
sasS'kaistset08-V000-I01499'
p1351
(lp1352
(dp1353
g5
S'person'
p1354
sg7
(lp1355
I465
aI212
aI525
aI362
asg9
I0
sa(dp1356
g5
S'person'
p1357
sg7
(lp1358
I300
aI204
aI321
aI261
asg9
I0
sasS'kaistset06-V002-I01079'
p1359
(lp1360
(dp1361
g5
S'person'
p1362
sg7
(lp1363
I603
aI231
aI641
aI346
asg9
I0
sasS'kaistset07-V000-I01469'
p1364
(lp1365
(dp1366
g5
S'person'
p1367
sg7
(lp1368
I499
aI213
aI536
aI303
asg9
I0
sasS'kaistset08-V000-I01709'
p1369
(lp1370
(dp1371
g5
S'person'
p1372
sg7
(lp1373
I409
aI207
aI438
aI283
asg9
I0
sa(dp1374
g5
S'person'
p1375
sg7
(lp1376
I393
aI213
aI413
aI274
asg9
I0
sasS'kaistset08-V002-I01319'
p1377
(lp1378
(dp1379
g5
S'person'
p1380
sg7
(lp1381
I291
aI208
aI321
aI263
asg9
I0
sasS'kaistset07-V001-I01949'
p1382
(lp1383
(dp1384
g5
S'person'
p1385
sg7
(lp1386
I559
aI203
aI603
aI276
asg9
I0
sasS'kaistset08-V002-I00659'
p1387
(lp1388
(dp1389
g5
S'person'
p1390
sg7
(lp1391
I257
aI216
aI281
aI276
asg9
I0
sasS'kaistset08-V000-I01319'
p1392
(lp1393
(dp1394
g5
S'person'
p1395
sg7
(lp1396
I375
aI202
aI407
aI288
asg9
I0
sa(dp1397
g5
S'person'
p1398
sg7
(lp1399
I236
aI188
aI259
aI248
asg9
I0
sasS'kaistset07-V002-I00329'
p1400
(lp1401
(dp1402
g5
S'person'
p1403
sg7
(lp1404
I597
aI206
aI625
aI262
asg9
I0
sasS'kaistset10-V000-I03569'
p1405
(lp1406
(dp1407
g5
S'person'
p1408
sg7
(lp1409
I455
aI200
aI486
aI302
asg9
I0
sa(dp1410
g5
S'person'
p1411
sg7
(lp1412
I415
aI207
aI453
aI297
asg9
I0
sasS'kaistset08-V000-I02369'
p1413
(lp1414
(dp1415
g5
S'person'
p1416
sg7
(lp1417
I426
aI214
aI475
aI338
asg9
I0
sasS'kaistset08-V000-I01409'
p1418
(lp1419
(dp1420
g5
S'person'
p1421
sg7
(lp1422
I194
aI221
aI231
aI314
asg9
I0
sa(dp1423
g5
S'person'
p1424
sg7
(lp1425
I248
aI212
aI276
aI271
asg9
I0
sa(dp1426
g5
S'person'
p1427
sg7
(lp1428
I266
aI211
aI290
aI273
asg9
I0
sasS'kaistset08-V002-I00539'
p1429
(lp1430
(dp1431
g5
S'person'
p1432
sg7
(lp1433
I420
aI220
aI479
aI322
asg9
I0
sa(dp1434
g5
S'person'
p1435
sg7
(lp1436
I465
aI223
aI507
aI313
asg9
I0
sasS'kaistset08-V002-I01799'
p1437
(lp1438
(dp1439
g5
S'person'
p1440
sg7
(lp1441
I592
aI246
aI640
aI474
asg9
I0
sasS'kaistset08-V000-I01799'
p1442
(lp1443
(dp1444
g5
S'person'
p1445
sg7
(lp1446
I182
aI209
aI210
aI289
asg9
I0
sa(dp1447
g5
S'person'
p1448
sg7
(lp1449
I168
aI210
aI191
aI288
asg9
I0
sasS'kaistset11-V001-I00329'
p1450
(lp1451
(dp1452
g5
S'person'
p1453
sg7
(lp1454
I425
aI217
aI455
aI290
asg9
I0
sasS'kaistset08-V000-I02009'
p1455
(lp1456
(dp1457
g5
S'person'
p1458
sg7
(lp1459
I292
aI205
aI316
aI282
asg9
I0
sa(dp1460
g5
S'person'
p1461
sg7
(lp1462
I305
aI210
aI331
aI277
asg9
I0
sa(dp1463
g5
S'person'
p1464
sg7
(lp1465
I339
aI207
aI359
aI275
asg9
I0
sasS'kaistset10-V000-I01169'
p1466
(lp1467
(dp1468
g5
S'person'
p1469
sg7
(lp1470
I464
aI214
aI488
aI286
asg9
I0
sasS'kaistset10-V000-I03899'
p1471
(lp1472
(dp1473
g5
S'person'
p1474
sg7
(lp1475
I511
aI202
aI534
aI260
asg9
I0
sa(dp1476
g5
S'person'
p1477
sg7
(lp1478
I550
aI199
aI576
aI272
asg9
I0
sasS'kaistset08-V000-I01229'
p1479
(lp1480
(dp1481
g5
S'person'
p1482
sg7
(lp1483
I379
aI216
aI407
aI282
asg9
I0
sasS'kaistset10-V001-I00329'
p1484
(lp1485
(dp1486
g5
S'person'
p1487
sg7
(lp1488
I550
aI209
aI571
aI268
asg9
I0
sasS'kaistset11-V000-I01529'
p1489
(lp1490
(dp1491
g5
S'person'
p1492
sg7
(lp1493
I159
aI237
aI214
aI383
asg9
I0
sa(dp1494
g5
S'person'
p1495
sg7
(lp1496
I216
aI239
aI256
aI388
asg9
I0
sasS'kaistset10-V001-I04139'
p1497
(lp1498
(dp1499
g5
S'person'
p1500
sg7
(lp1501
I523
aI223
aI548
aI285
asg9
I0
sasS'kaistset08-V001-I02789'
p1502
(lp1503
(dp1504
g5
S'person'
p1505
sg7
(lp1506
I161
aI223
aI191
aI278
asg9
I0
sa(dp1507
g5
S'person'
p1508
sg7
(lp1509
I50
aI221
aI77
aI283
asg9
I0
sa(dp1510
g5
S'person'
p1511
sg7
(lp1512
I71
aI220
aI110
aI289
asg9
I0
sasS'kaistset08-V001-I02609'
p1513
(lp1514
(dp1515
g5
S'person'
p1516
sg7
(lp1517
I65
aI223
aI92
aI292
asg9
I0
sa(dp1518
g5
S'person'
p1519
sg7
(lp1520
I203
aI214
aI236
aI299
asg9
I0
sa(dp1521
g5
S'person'
p1522
sg7
(lp1523
I473
aI219
aI528
aI358
asg9
I0
sa(dp1524
g5
S'person'
p1525
sg7
(lp1526
I98
aI212
aI157
aI353
asg9
I0
sa(dp1527
g5
S'person'
p1528
sg7
(lp1529
I352
aI224
aI397
aI334
asg9
I0
sa(dp1530
g5
S'person'
p1531
sg7
(lp1532
I157
aI204
aI196
aI304
asg9
I0
sa(dp1533
g5
S'person'
p1534
sg7
(lp1535
I515
aI225
aI545
aI281
asg9
I0
sasS'kaistset08-V002-I01259'
p1536
(lp1537
(dp1538
g5
S'person'
p1539
sg7
(lp1540
I54
aI220
aI121
aI328
asg9
I0
sa(dp1541
g5
S'person'
p1542
sg7
(lp1543
I425
aI212
aI464
aI276
asg9
I0
sa(dp1544
g5
S'person'
p1545
sg7
(lp1546
I573
aI227
aI602
aI296
asg9
I0
sasS'kaistset08-V002-I01709'
p1547
(lp1548
(dp1549
g5
S'person'
p1550
sg7
(lp1551
I592
aI206
aI636
aI306
asg9
I0
sasS'kaistset10-V001-I03299'
p1552
(lp1553
(dp1554
g5
S'person'
p1555
sg7
(lp1556
I576
aI217
aI614
aI301
asg9
I0
sasS'kaistset11-V000-I00089'
p1557
(lp1558
(dp1559
g5
S'person'
p1560
sg7
(lp1561
I552
aI245
aI610
aI433
asg9
I0
sa(dp1562
g5
S'person'
p1563
sg7
(lp1564
I186
aI228
aI211
aI299
asg9
I0
sasS'kaistset10-V001-I01409'
p1565
(lp1566
(dp1567
g5
S'person'
p1568
sg7
(lp1569
I387
aI224
aI425
aI308
asg9
I0
sasS'kaistset11-V001-I01499'
p1570
(lp1571
(dp1572
g5
S'person'
p1573
sg7
(lp1574
I67
aI199
aI99
aI256
asg9
I0
sasS'kaistset06-V002-I00419'
p1575
(lp1576
(dp1577
g5
S'person'
p1578
sg7
(lp1579
I408
aI245
aI444
aI312
asg9
I0
sasS'kaistset08-V001-I02849'
p1580
(lp1581
(dp1582
g5
S'person'
p1583
sg7
(lp1584
I85
aI221
aI115
aI276
asg9
I0
sa(dp1585
g5
S'person'
p1586
sg7
(lp1587
I9
aI217
aI36
aI279
asg9
I0
sa(dp1588
g5
S'person'
p1589
sg7
(lp1590
I531
aI215
aI551
aI281
asg9
I0
sasS'kaistset08-V000-I01139'
p1591
(lp1592
(dp1593
g5
S'person'
p1594
sg7
(lp1595
I332
aI210
aI359
aI282
asg9
I0
sa(dp1596
g5
S'person'
p1597
sg7
(lp1598
I362
aI214
aI385
aI271
asg9
I0
sa(dp1599
g5
S'person'
p1600
sg7
(lp1601
I313
aI209
aI334
aI285
asg9
I0
sasS'kaistset09-V000-I00989'
p1602
(lp1603
(dp1604
g5
S'person'
p1605
sg7
(lp1606
I492
aI228
aI512
aI304
asg9
I0
sa(dp1607
g5
S'person'
p1608
sg7
(lp1609
I102
aI236
aI131
aI310
asg9
I0
sasS'kaistset11-V001-I00149'
p1610
(lp1611
(dp1612
g5
S'person'
p1613
sg7
(lp1614
I136
aI219
aI171
aI285
asg9
I0
sa(dp1615
g5
S'person'
p1616
sg7
(lp1617
I440
aI223
aI481
aI307
asg9
I0
sa(dp1618
g5
S'person'
p1619
sg7
(lp1620
I544
aI213
aI573
aI281
asg9
I0
sa(dp1621
g5
S'person'
p1622
sg7
(lp1623
I561
aI212
aI592
aI283
asg9
I0
sasS'kaistset06-V003-I02579'
p1624
(lp1625
(dp1626
g5
S'person'
p1627
sg7
(lp1628
I331
aI229
aI353
aI299
asg9
I0
sa(dp1629
g5
S'person'
p1630
sg7
(lp1631
I350
aI221
aI386
aI304
asg9
I0
sasS'kaistset06-V002-I01319'
p1632
(lp1633
(dp1634
g5
S'person'
p1635
sg7
(lp1636
I77
aI195
aI121
aI283
asg9
I0
sasS'kaistset08-V000-I02219'
p1637
(lp1638
(dp1639
g5
S'person'
p1640
sg7
(lp1641
I227
aI213
aI250
aI273
asg9
I0
sasS'kaistset09-V000-I02519'
p1642
(lp1643
(dp1644
g5
S'person'
p1645
sg7
(lp1646
I438
aI218
aI458
aI274
asg9
I0
sa(dp1647
g5
S'person'
p1648
sg7
(lp1649
I457
aI211
aI477
aI278
asg9
I0
sasS'kaistset06-V003-I01679'
p1650
(lp1651
(dp1652
g5
S'person'
p1653
sg7
(lp1654
I508
aI223
aI538
aI301
asg9
I0
sa(dp1655
g5
S'person'
p1656
sg7
(lp1657
I542
aI224
aI567
aI294
asg9
I0
sasS'kaistset08-V000-I00929'
p1658
(lp1659
(dp1660
g5
S'person'
p1661
sg7
(lp1662
I447
aI224
aI495
aI366
asg9
I0
sa(dp1663
g5
S'person'
p1664
sg7
(lp1665
I48
aI210
aI97
aI346
asg9
I0
sa(dp1666
g5
S'person'
p1667
sg7
(lp1668
I405
aI221
aI455
aI362
asg9
I0
sasS'kaistset10-V000-I01019'
p1669
(lp1670
(dp1671
g5
S'person'
p1672
sg7
(lp1673
I573
aI223
aI612
aI331
asg9
I0
sasS'kaistset08-V002-I00449'
p1674
(lp1675
(dp1676
g5
S'person'
p1677
sg7
(lp1678
I127
aI216
aI181
aI323
asg9
I0
sa(dp1679
g5
S'person'
p1680
sg7
(lp1681
I182
aI207
aI229
aI333
asg9
I0
sasS'kaistset06-V003-I01889'
p1682
(lp1683
(dp1684
g5
S'person'
p1685
sg7
(lp1686
I535
aI226
aI564
aI304
asg9
I0
sasS'kaistset08-V000-I01859'
p1687
(lp1688
(dp1689
g5
S'person'
p1690
sg7
(lp1691
I377
aI226
aI407
aI307
asg9
I0
sa(dp1692
g5
S'person'
p1693
sg7
(lp1694
I482
aI212
aI511
aI306
asg9
I0
sasS'kaistset08-V002-I00809'
p1695
(lp1696
(dp1697
g5
S'person'
p1698
sg7
(lp1699
I227
aI213
aI260
aI286
asg9
I0
sasS'kaistset07-V002-I01379'
p1700
(lp1701
(dp1702
g5
S'person'
p1703
sg7
(lp1704
I475
aI215
aI511
aI293
asg9
I0
sa(dp1705
g5
S'person'
p1706
sg7
(lp1707
I507
aI214
aI540
aI283
asg9
I0
sasS'kaistset06-V003-I02279'
p1708
(lp1709
(dp1710
g5
S'person'
p1711
sg7
(lp1712
I361
aI219
aI388
aI293
asg9
I0
sa(dp1713
g5
S'person'
p1714
sg7
(lp1715
I387
aI226
aI415
aI297
asg9
I0
sasS'kaistset11-V000-I01469'
p1716
(lp1717
(dp1718
g5
S'person'
p1719
sg7
(lp1720
I528
aI236
aI570
aI344
asg9
I0
sa(dp1721
g5
S'person'
p1722
sg7
(lp1723
I571
aI232
aI598
aI339
asg9
I0
sasS'kaistset10-V001-I02999'
p1724
(lp1725
(dp1726
g5
S'person'
p1727
sg7
(lp1728
I584
aI228
aI613
aI289
asg9
I0
sasS'kaistset07-V002-I00779'
p1729
(lp1730
(dp1731
g5
S'person'
p1732
sg7
(lp1733
I556
aI219
aI591
aI296
asg9
I0
sasS'kaistset06-V003-I00659'
p1734
(lp1735
(dp1736
g5
S'person'
p1737
sg7
(lp1738
I595
aI211
aI616
aI271
asg9
I0
sasS'kaistset06-V000-I00749'
p1739
(lp1740
(dp1741
g5
S'person'
p1742
sg7
(lp1743
I470
aI220
aI492
aI286
asg9
I0
sasS'kaistset06-V004-I02159'
p1744
(lp1745
(dp1746
g5
S'person'
p1747
sg7
(lp1748
I521
aI214
aI552
aI275
asg9
I0
sasS'kaistset06-V004-I02099'
p1749
(lp1750
(dp1751
g5
S'person'
p1752
sg7
(lp1753
I578
aI248
aI602
aI311
asg9
I0
sa(dp1754
g5
S'person'
p1755
sg7
(lp1756
I480
aI235
aI504
aI298
asg9
I0
sasS'kaistset08-V002-I00119'
p1757
(lp1758
(dp1759
g5
S'person'
p1760
sg7
(lp1761
I544
aI201
aI576
aI286
asg9
I0
sa(dp1762
g5
S'person'
p1763
sg7
(lp1764
I516
aI204
aI539
aI267
asg9
I0
sa(dp1765
g5
S'person'
p1766
sg7
(lp1767
I527
aI204
aI554
aI264
asg9
I0
sasS'kaistset09-V000-I03179'
p1768
(lp1769
(dp1770
g5
S'person'
p1771
sg7
(lp1772
I418
aI219
aI464
aI310
asg9
I0
sasS'kaistset10-V001-I00299'
p1773
(lp1774
(dp1775
g5
S'person'
p1776
sg7
(lp1777
I561
aI208
aI582
aI267
asg9
I0
sasS'kaistset08-V002-I00509'
p1778
(lp1779
(dp1780
g5
S'person'
p1781
sg7
(lp1782
I501
aI219
aI532
aI300
asg9
I0
sa(dp1783
g5
S'person'
p1784
sg7
(lp1785
I465
aI221
aI500
aI318
asg9
I0
sa(dp1786
g5
S'person'
p1787
sg7
(lp1788
I441
aI226
aI498
aI319
asg9
I0
sa(dp1789
g5
S'person'
p1790
sg7
(lp1791
I1
aI232
aI24
aI331
asg9
I0
sasS'kaistset08-V002-I00059'
p1792
(lp1793
(dp1794
g5
S'person'
p1795
sg7
(lp1796
I583
aI229
aI618
aI299
asg9
I0
sa(dp1797
g5
S'person'
p1798
sg7
(lp1799
I530
aI213
aI555
aI270
asg9
I0
sa(dp1800
g5
S'person'
p1801
sg7
(lp1802
I599
aI217
aI638
aI299
asg9
I0
sa(dp1803
g5
S'person'
p1804
sg7
(lp1805
I515
aI214
aI538
aI270
asg9
I0
sasS'kaistset11-V000-I00359'
p1806
(lp1807
(dp1808
g5
S'person'
p1809
sg7
(lp1810
I1
aI236
aI52
aI397
asg9
I0
sa(dp1811
g5
S'person'
p1812
sg7
(lp1813
I58
aI225
aI109
aI395
asg9
I0
sa(dp1814
g5
S'person'
p1815
sg7
(lp1816
I88
aI211
aI144
aI415
asg9
I0
sasS'kaistset08-V001-I00359'
p1817
(lp1818
(dp1819
g5
S'person'
p1820
sg7
(lp1821
I207
aI236
aI267
aI342
asg9
I0
sasS'kaistset08-V000-I01919'
p1822
(lp1823
(dp1824
g5
S'person'
p1825
sg7
(lp1826
I10
aI212
aI61
aI400
asg9
I0
sa(dp1827
g5
S'person'
p1828
sg7
(lp1829
I533
aI224
aI618
aI444
asg9
I0
sa(dp1830
g5
S'person'
p1831
sg7
(lp1832
I274
aI200
aI325
aI379
asg9
I0
sa(dp1833
g5
S'person'
p1834
sg7
(lp1835
I319
aI206
aI368
aI345
asg9
I0
sasS'kaistset08-V000-I01529'
p1836
(lp1837
(dp1838
g5
S'person'
p1839
sg7
(lp1840
I304
aI215
aI329
aI270
asg9
I0
sa(dp1841
g5
S'person'
p1842
sg7
(lp1843
I275
aI210
aI298
aI271
asg9
I0
sasS'kaistset08-V001-I00329'
p1844
(lp1845
(dp1846
g5
S'person'
p1847
sg7
(lp1848
I1
aI223
aI42
aI339
asg9
I0
sasS'kaistset08-V002-I00479'
p1849
(lp1850
(dp1851
g5
S'person'
p1852
sg7
(lp1853
I444
aI213
aI478
aI304
asg9
I0
sa(dp1854
g5
S'person'
p1855
sg7
(lp1856
I49
aI204
aI119
aI341
asg9
I0
sasS'kaistset07-V001-I03599'
p1857
(lp1858
(dp1859
g5
S'person'
p1860
sg7
(lp1861
I449
aI207
aI480
aI269
asg9
I0
sasS'kaistset06-V004-I00179'
p1862
(lp1863
(dp1864
g5
S'person'
p1865
sg7
(lp1866
I478
aI197
aI524
aI284
asg9
I0
sasS'kaistset10-V000-I03599'
p1867
(lp1868
(dp1869
g5
S'person'
p1870
sg7
(lp1871
I502
aI197
aI538
aI326
asg9
I0
sa(dp1872
g5
S'person'
p1873
sg7
(lp1874
I446
aI207
aI488
aI313
asg9
I0
sasS'kaistset10-V001-I01379'
p1875
(lp1876
(dp1877
g5
S'person'
p1878
sg7
(lp1879
I375
aI233
aI413
aI315
asg9
I0
sasS'kaistset06-V003-I01409'
p1880
(lp1881
(dp1882
g5
S'person'
p1883
sg7
(lp1884
I562
aI209
aI589
aI269
asg9
I0
sasS'kaistset06-V001-I00479'
p1885
(lp1886
(dp1887
g5
S'person'
p1888
sg7
(lp1889
I255
aI214
aI307
aI319
asg9
I0
sa(dp1890
g5
S'person'
p1891
sg7
(lp1892
I286
aI211
aI331
aI321
asg9
I0
sa(dp1893
g5
S'person'
p1894
sg7
(lp1895
I48
aI207
aI97
aI295
asg9
I0
sa(dp1896
g5
S'person'
p1897
sg7
(lp1898
I106
aI212
aI139
aI289
asg9
I0
sa(dp1899
g5
S'person'
p1900
sg7
(lp1901
I74
aI207
aI109
aI293
asg9
I0
sa(dp1902
g5
S'person'
p1903
sg7
(lp1904
I534
aI220
aI580
aI333
asg9
I0
sa(dp1905
g5
S'person'
p1906
sg7
(lp1907
I401
aI224
aI436
aI288
asg9
I0
sa(dp1908
g5
S'person'
p1909
sg7
(lp1910
I141
aI221
aI178
aI290
asg9
I0
sasS'kaistset11-V000-I01139'
p1911
(lp1912
(dp1913
g5
S'person'
p1914
sg7
(lp1915
I435
aI236
aI480
aI375
asg9
I0
sasS'kaistset08-V000-I01679'
p1916
(lp1917
(dp1918
g5
S'person'
p1919
sg7
(lp1920
I412
aI244
aI496
aI484
asg9
I0
sa(dp1921
g5
S'person'
p1922
sg7
(lp1923
I515
aI234
aI602
aI502
asg9
I0
sa(dp1924
g5
S'person'
p1925
sg7
(lp1926
I463
aI235
aI523
aI486
asg9
I0
sa(dp1927
g5
S'person'
p1928
sg7
(lp1929
I382
aI214
aI406
aI275
asg9
I0
sa(dp1930
g5
S'person'
p1931
sg7
(lp1932
I370
aI215
aI390
aI276
asg9
I0
sasS'kaistset08-V002-I01229'
p1933
(lp1934
(dp1935
g5
S'person'
p1936
sg7
(lp1937
I225
aI227
aI261
aI289
asg9
I0
sa(dp1938
g5
S'person'
p1939
sg7
(lp1940
I242
aI220
aI275
aI288
asg9
I0
sa(dp1941
g5
S'person'
p1942
sg7
(lp1943
I3
aI205
aI50
aI293
asg9
I0
sa(dp1944
g5
S'person'
p1945
sg7
(lp1946
I418
aI212
aI446
aI269
asg9
I0
sa(dp1947
g5
S'person'
p1948
sg7
(lp1949
I565
aI228
aI602
aI309
asg9
I0
sa(dp1950
g5
S'person'
p1951
sg7
(lp1952
I555
aI226
aI582
aI281
asg9
I0
sa(dp1953
g5
S'person'
p1954
sg7
(lp1955
I28
aI198
aI72
aI268
asg9
I0
sasS'kaistset08-V002-I01739'
p1956
(lp1957
(dp1958
g5
S'person'
p1959
sg7
(lp1960
I387
aI226
aI409
aI290
asg9
I0
sasS'kaistset06-V000-I01439'
p1961
(lp1962
(dp1963
g5
S'person'
p1964
sg7
(lp1965
I517
aI210
aI541
aI278
asg9
I0
sasS'kaistset07-V001-I02309'
p1966
(lp1967
(dp1968
g5
S'person'
p1969
sg7
(lp1970
I588
aI209
aI618
aI264
asg9
I0
sasS'kaistset11-V000-I00539'
p1971
(lp1972
(dp1973
g5
S'person'
p1974
sg7
(lp1975
I410
aI218
aI443
aI287
asg9
I0
sasS'kaistset08-V001-I02729'
p1976
(lp1977
(dp1978
g5
S'person'
p1979
sg7
(lp1980
I9
aI218
aI39
aI288
asg9
I0
sa(dp1981
g5
S'person'
p1982
sg7
(lp1983
I101
aI219
aI144
aI297
asg9
I0
sa(dp1984
g5
S'person'
p1985
sg7
(lp1986
I54
aI226
aI124
aI371
asg9
I0
sa(dp1987
g5
S'person'
p1988
sg7
(lp1989
I259
aI218
aI355
aI380
asg9
I0
sa(dp1990
g5
S'person'
p1991
sg7
(lp1992
I250
aI229
aI280
aI284
asg9
I0
sa(dp1993
g5
S'person'
p1994
sg7
(lp1995
I131
aI219
aI170
aI308
asg9
I0
sa(dp1996
g5
S'person'
p1997
sg7
(lp1998
I344
aI220
aI383
aI281
asg9
I0
sasS'kaistset08-V000-I02039'
p1999
(lp2000
(dp2001
g5
S'person'
p2002
sg7
(lp2003
I290
aI203
aI313
aI277
asg9
I0
sa(dp2004
g5
S'person'
p2005
sg7
(lp2006
I302
aI212
aI328
aI279
asg9
I0
sa(dp2007
g5
S'person'
p2008
sg7
(lp2009
I356
aI209
aI386
aI289
asg9
I0
sasS'kaistset08-V001-I02489'
p2010
(lp2011
(dp2012
g5
S'person'
p2013
sg7
(lp2014
I241
aI220
aI272
aI311
asg9
I0
sa(dp2015
g5
S'person'
p2016
sg7
(lp2017
I398
aI224
aI436
aI308
asg9
I0
sa(dp2018
g5
S'person'
p2019
sg7
(lp2020
I443
aI221
aI476
aI310
asg9
I0
sa(dp2021
g5
S'person'
p2022
sg7
(lp2023
I195
aI216
aI254
aI320
asg9
I0
sa(dp2024
g5
S'person'
p2025
sg7
(lp2026
I284
aI219
aI328
aI292
asg9
I0
sa(dp2027
g5
S'person'
p2028
sg7
(lp2029
I65
aI229
aI142
aI357
asg9
I0
sasS'kaistset10-V001-I02429'
p2030
(lp2031
(dp2032
g5
S'person'
p2033
sg7
(lp2034
I520
aI215
aI547
aI272
asg9
I0
sasS'kaistset06-V002-I01049'
p2035
(lp2036
(dp2037
g5
S'person'
p2038
sg7
(lp2039
I464
aI229
aI498
aI292
asg9
I0
sasS'kaistset08-V002-I01439'
p2040
(lp2041
(dp2042
g5
S'person'
p2043
sg7
(lp2044
I21
aI214
aI69
aI309
asg9
I0
sa(dp2045
g5
S'person'
p2046
sg7
(lp2047
I61
aI219
aI99
aI283
asg9
I0
sasS'kaistset10-V001-I04049'
p2048
(lp2049
(dp2050
g5
S'person'
p2051
sg7
(lp2052
I597
aI212
aI628
aI288
asg9
I0
sasS'kaistset06-V003-I02999'
p2053
(lp2054
(dp2055
g5
S'person'
p2056
sg7
(lp2057
I375
aI217
aI396
aI284
asg9
I0
sasS'kaistset09-V000-I00899'
p2058
(lp2059
(dp2060
g5
S'person'
p2061
sg7
(lp2062
I3
aI214
aI25
aI279
asg9
I0
sasS'kaistset07-V000-I02189'
p2063
(lp2064
(dp2065
g5
S'person'
p2066
sg7
(lp2067
I605
aI203
aI638
aI267
asg9
I0
sasS'kaistset08-V000-I01079'
p2068
(lp2069
(dp2070
g5
S'person'
p2071
sg7
(lp2072
I356
aI210
aI388
aI274
asg9
I0
sa(dp2073
g5
S'person'
p2074
sg7
(lp2075
I323
aI210
aI346
aI267
asg9
I0
sasS'kaistset08-V002-I01649'
p2076
(lp2077
(dp2078
g5
S'person'
p2079
sg7
(lp2080
I576
aI213
aI615
aI303
asg9
I0
sasS'kaistset11-V000-I00869'
p2081
(lp2082
(dp2083
g5
S'person'
p2084
sg7
(lp2085
I390
aI232
aI428
aI365
asg9
I0
sa(dp2086
g5
S'person'
p2087
sg7
(lp2088
I369
aI228
aI400
aI360
asg9
I0
sa(dp2089
g5
S'person'
p2090
sg7
(lp2091
I294
aI221
aI335
aI303
asg9
I0
sasS'kaistset06-V004-I00209'
p2092
(lp2093
(dp2094
g5
S'person'
p2095
sg7
(lp2096
I204
aI213
aI289
aI476
asg9
I0
sasS'kaistset11-V000-I00989'
p2097
(lp2098
(dp2099
g5
S'person'
p2100
sg7
(lp2101
I514
aI245
aI590
aI468
asg9
I0
sa(dp2102
g5
S'person'
p2103
sg7
(lp2104
I250
aI228
aI283
aI316
asg9
I0
sasS'kaistset10-V001-I03269'
p2105
(lp2106
(dp2107
g5
S'person'
p2108
sg7
(lp2109
I462
aI209
aI491
aI269
asg9
I0
sasS'kaistset06-V003-I00599'
p2110
(lp2111
(dp2112
g5
S'person'
p2113
sg7
(lp2114
I517
aI212
aI539
aI270
asg9
I0
sasS'kaistset06-V003-I00269'
p2115
(lp2116
(dp2117
g5
S'person'
p2118
sg7
(lp2119
I543
aI214
aI565
aI271
asg9
I0
sa(dp2120
g5
S'person'
p2121
sg7
(lp2122
I506
aI216
aI533
aI274
asg9
I0
sasS'kaistset06-V002-I00449'
p2123
(lp2124
(dp2125
g5
S'person'
p2126
sg7
(lp2127
I543
aI240
aI591
aI341
asg9
I0
sasS'kaistset06-V001-I00359'
p2128
(lp2129
(dp2130
g5
S'person'
p2131
sg7
(lp2132
I541
aI215
aI572
aI288
asg9
I0
sa(dp2133
g5
S'person'
p2134
sg7
(lp2135
I561
aI219
aI593
aI292
asg9
I0
sasS'kaistset10-V000-I01199'
p2136
(lp2137
(dp2138
g5
S'person'
p2139
sg7
(lp2140
I456
aI215
aI479
aI281
asg9
I0
sasS'kaistset08-V001-I01079'
p2141
(lp2142
(dp2143
g5
S'person'
p2144
sg7
(lp2145
I452
aI208
aI489
aI270
asg9
I0
sasS'kaistset06-V003-I03149'
p2146
(lp2147
(dp2148
g5
S'person'
p2149
sg7
(lp2150
I435
aI233
aI498
aI449
asg9
I0
sasS'kaistset06-V003-I02039'
p2151
(lp2152
(dp2153
g5
S'person'
p2154
sg7
(lp2155
I153
aI216
aI183
aI285
asg9
I0
sasS'kaistset11-V000-I01589'
p2156
(lp2157
(dp2158
g5
S'person'
p2159
sg7
(lp2160
I30
aI243
aI87
aI336
asg9
I0
sasS'kaistset06-V003-I00299'
p2161
(lp2162
(dp2163
g5
S'person'
p2164
sg7
(lp2165
I586
aI232
aI610
aI290
asg9
I0
sa(dp2166
g5
S'person'
p2167
sg7
(lp2168
I612
aI227
aI640
aI289
asg9
I0
sasS'kaistset10-V000-I03629'
p2169
(lp2170
(dp2171
g5
S'person'
p2172
sg7
(lp2173
I566
aI196
aI619
aI353
asg9
I0
sa(dp2174
g5
S'person'
p2175
sg7
(lp2176
I486
aI193
aI540
aI334
asg9
I0
sasS'kaistset08-V002-I00239'
p2177
(lp2178
(dp2179
g5
S'person'
p2180
sg7
(lp2181
I509
aI207
aI534
aI284
asg9
I0
sasS'kaistset09-V000-I01259'
p2182
(lp2183
(dp2184
g5
S'person'
p2185
sg7
(lp2186
I55
aI240
aI149
aI461
asg9
I0
sasS'kaistset09-V000-I01139'
p2187
(lp2188
(dp2189
g5
S'person'
p2190
sg7
(lp2191
I169
aI227
aI241
aI414
asg9
I0
sa(dp2192
g5
S'person'
p2193
sg7
(lp2194
I415
aI225
aI467
aI341
asg9
I0
sa(dp2195
g5
S'person'
p2196
sg7
(lp2197
I330
aI239
aI360
aI297
asg9
I0
sasS'kaistset08-V000-I00389'
p2198
(lp2199
(dp2200
g5
S'person'
p2201
sg7
(lp2202
I512
aI212
aI563
aI343
asg9
I0
sasS'kaistset08-V000-I01559'
p2203
(lp2204
(dp2205
g5
S'person'
p2206
sg7
(lp2207
I262
aI207
aI292
aI277
asg9
I0
sa(dp2208
g5
S'person'
p2209
sg7
(lp2210
I237
aI209
aI266
aI283
asg9
I0
sa(dp2211
g5
S'person'
p2212
sg7
(lp2213
I294
aI213
aI319
aI286
asg9
I0
sa(dp2214
g5
S'person'
p2215
sg7
(lp2216
I310
aI213
aI342
aI289
asg9
I0
sasS'kaistset06-V001-I00509'
p2217
(lp2218
(dp2219
g5
S'person'
p2220
sg7
(lp2221
I225
aI219
aI273
aI311
asg9
I0
sa(dp2222
g5
S'person'
p2223
sg7
(lp2224
I257
aI213
aI299
aI315
asg9
I0
sa(dp2225
g5
S'person'
p2226
sg7
(lp2227
I69
aI210
aI118
aI307
asg9
I0
sa(dp2228
g5
S'person'
p2229
sg7
(lp2230
I139
aI212
aI172
aI289
asg9
I0
sa(dp2231
g5
S'person'
p2232
sg7
(lp2233
I101
aI203
aI134
aI303
asg9
I0
sa(dp2234
g5
S'person'
p2235
sg7
(lp2236
I574
aI228
aI625
aI429
asg9
I0
sa(dp2237
g5
S'person'
p2238
sg7
(lp2239
I486
aI221
aI537
aI323
asg9
I0
sa(dp2240
g5
S'person'
p2241
sg7
(lp2242
I410
aI220
aI445
aI284
asg9
I0
sasS'kaistset08-V002-I00839'
p2243
(lp2244
(dp2245
g5
S'person'
p2246
sg7
(lp2247
I221
aI214
aI255
aI287
asg9
I0
sasS'kaistset08-V001-I00779'
p2248
(lp2249
(dp2250
g5
S'person'
p2251
sg7
(lp2252
I342
aI213
aI387
aI300
asg9
I0
sasS'kaistset10-V000-I03659'
p2253
(lp2254
(dp2255
g5
S'person'
p2256
sg7
(lp2257
I546
aI197
aI611
aI377
asg9
I0
sasS'kaistset08-V000-I00779'
p2258
(lp2259
(dp2260
g5
S'person'
p2261
sg7
(lp2262
I527
aI225
aI566
aI341
asg9
I0
sasS'kaistset11-V000-I01739'
p2263
(lp2264
(dp2265
g5
S'person'
p2266
sg7
(lp2267
I393
aI220
aI415
aI296
asg9
I0
sa(dp2268
g5
S'person'
p2269
sg7
(lp2270
I414
aI224
aI444
aI301
asg9
I0
sasS'kaistset08-V001-I02579'
p2271
(lp2272
(dp2273
g5
S'person'
p2274
sg7
(lp2275
I213
aI218
aI253
aI302
asg9
I0
sa(dp2276
g5
S'person'
p2277
sg7
(lp2278
I256
aI216
aI289
aI303
asg9
I0
sa(dp2279
g5
S'person'
p2280
sg7
(lp2281
I450
aI212
aI492
aI301
asg9
I0
sa(dp2282
g5
S'person'
p2283
sg7
(lp2284
I130
aI216
aI164
aI288
asg9
I0
sa(dp2285
g5
S'person'
p2286
sg7
(lp2287
I385
aI214
aI450
aI372
asg9
I0
sa(dp2288
g5
S'person'
p2289
sg7
(lp2290
I481
aI220
aI526
aI352
asg9
I0
sa(dp2291
g5
S'person'
p2292
sg7
(lp2293
I79
aI212
aI118
aI315
asg9
I0
sa(dp2294
g5
S'person'
p2295
sg7
(lp2296
I587
aI226
aI617
aI283
asg9
I0
sasS'kaistset06-V002-I00209'
p2297
(lp2298
(dp2299
g5
S'person'
p2300
sg7
(lp2301
I597
aI222
aI632
aI297
asg9
I0
sasS'kaistset08-V000-I00899'
p2302
(lp2303
(dp2304
g5
S'person'
p2305
sg7
(lp2306
I24
aI207
aI86
aI398
asg9
I0
sa(dp2307
g5
S'person'
p2308
sg7
(lp2309
I144
aI193
aI212
aI378
asg9
I0
sa(dp2310
g5
S'person'
p2311
sg7
(lp2312
I461
aI222
aI489
aI308
asg9
I0
sa(dp2313
g5
S'person'
p2314
sg7
(lp2315
I442
aI232
aI470
aI300
asg9
I0
sasS'kaistset06-V000-I00419'
p2316
(lp2317
(dp2318
g5
S'person'
p2319
sg7
(lp2320
I574
aI216
aI601
aI279
asg9
I0
sa(dp2321
g5
S'person'
p2322
sg7
(lp2323
I544
aI217
aI567
aI276
asg9
I0
sasS'kaistset08-V001-I00659'
p2324
(lp2325
(dp2326
g5
S'person'
p2327
sg7
(lp2328
I434
aI204
aI472
aI299
asg9
I0
sasS'kaistset10-V000-I03479'
p2329
(lp2330
(dp2331
g5
S'person'
p2332
sg7
(lp2333
I367
aI205
aI391
aI263
asg9
I0
sasS'kaistset08-V002-I01019'
p2334
(lp2335
(dp2336
g5
S'person'
p2337
sg7
(lp2338
I519
aI209
aI554
aI283
asg9
I0
sasS'kaistset08-V000-I00809'
p2339
(lp2340
(dp2341
g5
S'person'
p2342
sg7
(lp2343
I65
aI207
aI133
aI396
asg9
I0
sa(dp2344
g5
S'person'
p2345
sg7
(lp2346
I488
aI210
aI524
aI317
asg9
I0
sa(dp2347
g5
S'person'
p2348
sg7
(lp2349
I140
aI210
aI218
aI412
asg9
I0
sasS'kaistset10-V001-I01649'
p2350
(lp2351
(dp2352
g5
S'person'
p2353
sg7
(lp2354
I583
aI217
aI610
aI283
asg9
I0
sa(dp2355
g5
S'person'
p2356
sg7
(lp2357
I569
aI222
aI594
aI286
asg9
I0
sasS'kaistset07-V002-I01289'
p2358
(lp2359
(dp2360
g5
S'person'
p2361
sg7
(lp2362
I595
aI205
aI627
aI275
asg9
I0
sasS'kaistset07-V002-I00869'
p2363
(lp2364
(dp2365
g5
S'person'
p2366
sg7
(lp2367
I592
aI219
aI618
aI283
asg9
I0
sa(dp2368
g5
S'person'
p2369
sg7
(lp2370
I569
aI219
aI598
aI289
asg9
I0
sasS'kaistset11-V000-I01499'
p2371
(lp2372
(dp2373
g5
S'person'
p2374
sg7
(lp2375
I334
aI235
aI377
aI352
asg9
I0
sa(dp2376
g5
S'person'
p2377
sg7
(lp2378
I386
aI234
aI419
aI353
asg9
I0
sasS'kaistset11-V000-I00509'
p2379
(lp2380
(dp2381
g5
S'person'
p2382
sg7
(lp2383
I364
aI216
aI393
aI281
asg9
I0
sasS'kaistset06-V003-I04019'
p2384
(lp2385
(dp2386
g5
S'person'
p2387
sg7
(lp2388
I403
aI214
aI428
aI279
asg9
I0
sasS'kaistset09-V000-I00149'
p2389
(lp2390
(dp2391
g5
S'person'
p2392
sg7
(lp2393
I147
aI213
aI171
aI284
asg9
I0
sasS'kaistset07-V000-I02099'
p2394
(lp2395
(dp2396
g5
S'person'
p2397
sg7
(lp2398
I594
aI226
aI641
aI333
asg9
I0
sasS'kaistset11-V000-I01559'
p2399
(lp2400
(dp2401
g5
S'person'
p2402
sg7
(lp2403
I20
aI246
aI82
aI451
asg9
I0
sa(dp2404
g5
S'person'
p2405
sg7
(lp2406
I69
aI239
aI139
aI462
asg9
I0
sasS'kaistset08-V002-I01949'
p2407
(lp2408
(dp2409
g5
S'person'
p2410
sg7
(lp2411
I132
aI203
aI160
aI270
asg9
I0
sa(dp2412
g5
S'person'
p2413
sg7
(lp2414
I120
aI212
aI143
aI274
asg9
I0
sasS'kaistset11-V000-I00269'
p2415
(lp2416
(dp2417
g5
S'person'
p2418
sg7
(lp2419
I406
aI229
aI428
aI301
asg9
I0
sa(dp2420
g5
S'person'
p2421
sg7
(lp2422
I380
aI232
aI402
aI289
asg9
I0
sa(dp2423
g5
S'person'
p2424
sg7
(lp2425
I121
aI232
aI150
aI294
asg9
I0
sa(dp2426
g5
S'person'
p2427
sg7
(lp2428
I111
aI228
aI136
aI297
asg9
I0
sa(dp2429
g5
S'person'
p2430
sg7
(lp2431
I224
aI223
aI244
aI284
asg9
I0
sasS'kaistset08-V002-I01769'
p2432
(lp2433
(dp2434
g5
S'person'
p2435
sg7
(lp2436
I436
aI225
aI466
aI321
asg9
I0
sasS'kaistset08-V000-I02519'
p2437
(lp2438
(dp2439
g5
S'person'
p2440
sg7
(lp2441
I222
aI202
aI270
aI328
asg9
I0
sa(dp2442
g5
S'person'
p2443
sg7
(lp2444
I189
aI209
aI221
aI325
asg9
I0
sa(dp2445
g5
S'person'
p2446
sg7
(lp2447
I160
aI206
aI194
aI325
asg9
I0
sasS'kaistset10-V001-I03029'
p2448
(lp2449
(dp2450
g5
S'person'
p2451
sg7
(lp2452
I487
aI213
aI523
aI295
asg9
I0
sasS'kaistset08-V000-I02459'
p2453
(lp2454
(dp2455
g5
S'person'
p2456
sg7
(lp2457
I289
aI211
aI315
aI275
asg9
I0
sa(dp2458
g5
S'person'
p2459
sg7
(lp2460
I265
aI214
aI286
aI271
asg9
I0
sa(dp2461
g5
S'person'
p2462
sg7
(lp2463
I247
aI208
aI269
aI270
asg9
I0
sasS'kaistset08-V000-I01739'
p2464
(lp2465
(dp2466
g5
S'person'
p2467
sg7
(lp2468
I404
aI208
aI435
aI278
asg9
I0
sa(dp2469
g5
S'person'
p2470
sg7
(lp2471
I394
aI214
aI415
aI275
asg9
I0
sasS'kaistset06-V003-I03089'
p2472
(lp2473
(dp2474
g5
S'person'
p2475
sg7
(lp2476
I70
aI214
aI137
aI415
asg9
I0
sasS'kaistset11-V000-I01259'
p2477
(lp2478
(dp2479
g5
S'person'
p2480
sg7
(lp2481
I431
aI233
aI470
aI334
asg9
I0
sasS'kaistset09-V000-I01229'
p2482
(lp2483
(dp2484
g5
S'person'
p2485
sg7
(lp2486
I538
aI239
aI611
aI415
asg9
I0
sa(dp2487
g5
S'person'
p2488
sg7
(lp2489
I195
aI211
aI247
aI334
asg9
I0
sa(dp2490
g5
S'person'
p2491
sg7
(lp2492
I242
aI223
aI297
aI347
asg9
I0
sasS'kaistset07-V001-I03569'
p2493
(lp2494
(dp2495
g5
S'person'
p2496
sg7
(lp2497
I372
aI196
aI414
aI260
asg9
I0
sasS'kaistset06-V004-I00809'
p2498
(lp2499
(dp2500
g5
S'person'
p2501
sg7
(lp2502
I85
aI224
aI119
aI305
asg9
I0
sasS'kaistset08-V002-I01289'
p2503
(lp2504
(dp2505
g5
S'person'
p2506
sg7
(lp2507
I388
aI200
aI423
aI271
asg9
I0
sa(dp2508
g5
S'person'
p2509
sg7
(lp2510
I542
aI216
aI584
aI304
asg9
I0
sa(dp2511
g5
S'person'
p2512
sg7
(lp2513
I494
aI197
aI527
aI270
asg9
I0
sasS'kaistset07-V001-I03809'
p2514
(lp2515
(dp2516
g5
S'person'
p2517
sg7
(lp2518
I480
aI207
aI514
aI293
asg9
I0
sasS'kaistset06-V004-I02669'
p2519
(lp2520
(dp2521
g5
S'person'
p2522
sg7
(lp2523
I593
aI202
aI624
aI274
asg9
I0
sasS'kaistset11-V001-I00179'
p2524
(lp2525
(dp2526
g5
S'person'
p2527
sg7
(lp2528
I31
aI217
aI93
aI338
asg9
I0
sasS'kaistset11-V000-I01199'
p2529
(lp2530
(dp2531
g5
S'person'
p2532
sg7
(lp2533
I69
aI246
aI117
aI378
asg9
I0
sa(dp2534
g5
S'person'
p2535
sg7
(lp2536
I117
aI243
aI158
aI387
asg9
I0
sa(dp2537
g5
S'person'
p2538
sg7
(lp2539
I363
aI231
aI397
aI309
asg9
I0
sa(dp2540
g5
S'person'
p2541
sg7
(lp2542
I380
aI223
aI409
aI301
asg9
I0
sasS'kaistset11-V000-I00959'
p2543
(lp2544
(dp2545
g5
S'person'
p2546
sg7
(lp2547
I581
aI229
aI636
aI389
asg9
I0
sa(dp2548
g5
S'person'
p2549
sg7
(lp2550
I463
aI228
aI496
aI344
asg9
I0
sa(dp2551
g5
S'person'
p2552
sg7
(lp2553
I533
aI226
aI568
aI375
asg9
I0
sa(dp2554
g5
S'person'
p2555
sg7
(lp2556
I487
aI228
aI523
aI355
asg9
I0
sasS'kaistset07-V001-I01229'
p2557
(lp2558
(dp2559
g5
S'person'
p2560
sg7
(lp2561
I548
aI203
aI577
aI259
asg9
I0
sa(dp2562
g5
S'person'
p2563
sg7
(lp2564
I519
aI200
aI545
aI257
asg9
I0
sasS'kaistset06-V003-I03569'
p2565
(lp2566
(dp2567
g5
S'person'
p2568
sg7
(lp2569
I480
aI218
aI505
aI283
asg9
I0
sa(dp2570
g5
S'person'
p2571
sg7
(lp2572
I418
aI220
aI444
aI292
asg9
I0
sa(dp2573
g5
S'person'
p2574
sg7
(lp2575
I558
aI221
aI583
aI285
asg9
I0
sa(dp2576
g5
S'person'
p2577
sg7
(lp2578
I450
aI231
aI471
aI290
asg9
I0
sasS'kaistset08-V002-I02009'
p2579
(lp2580
(dp2581
g5
S'person'
p2582
sg7
(lp2583
I603
aI216
aI640
aI332
asg9
I0
sasS'kaistset09-V000-I00929'
p2584
(lp2585
(dp2586
g5
S'person'
p2587
sg7
(lp2588
I3
aI219
aI43
aI314
asg9
I0
sa(dp2589
g5
S'person'
p2590
sg7
(lp2591
I51
aI218
aI76
aI297
asg9
I0
sasS'kaistset07-V002-I00689'
p2592
(lp2593
(dp2594
g5
S'person'
p2595
sg7
(lp2596
I593
aI191
aI625
aI252
asg9
I0
sasS'kaistset07-V000-I00749'
p2597
(lp2598
(dp2599
g5
S'person'
p2600
sg7
(lp2601
I480
aI214
aI503
aI271
asg9
I0
sasS'kaistset07-V002-I01349'
p2602
(lp2603
(dp2604
g5
S'person'
p2605
sg7
(lp2606
I588
aI208
aI620
aI295
asg9
I0
sa(dp2607
g5
S'person'
p2608
sg7
(lp2609
I494
aI207
aI538
aI289
asg9
I0
sasS'kaistset06-V003-I02969'
p2610
(lp2611
(dp2612
g5
S'person'
p2613
sg7
(lp2614
I405
aI226
aI425
aI284
asg9
I0
sasS'kaistset08-V002-I00299'
p2615
(lp2616
(dp2617
g5
S'person'
p2618
sg7
(lp2619
I156
aI212
aI190
aI276
asg9
I0
sa(dp2620
g5
S'person'
p2621
sg7
(lp2622
I135
aI211
aI172
aI280
asg9
I0
sasS'kaistset06-V001-I00389'
p2623
(lp2624
(dp2625
g5
S'person'
p2626
sg7
(lp2627
I541
aI215
aI581
aI309
asg9
I0
sa(dp2628
g5
S'person'
p2629
sg7
(lp2630
I572
aI216
aI606
aI306
asg9
I0
sa(dp2631
g5
S'person'
p2632
sg7
(lp2633
I239
aI183
aI271
aI241
asg9
I0
sa(dp2634
g5
S'person'
p2635
sg7
(lp2636
I318
aI196
aI345
aI253
asg9
I0
sasS'kaistset08-V002-I02099'
p2637
(lp2638
(dp2639
g5
S'person'
p2640
sg7
(lp2641
I27
aI206
aI81
aI303
asg9
I0
sa(dp2642
g5
S'person'
p2643
sg7
(lp2644
I5
aI204
aI55
aI310
asg9
I0
sasS'kaistset08-V000-I00989'
p2645
(lp2646
(dp2647
g5
S'person'
p2648
sg7
(lp2649
I135
aI212
aI187
aI315
asg9
I0
sa(dp2650
g5
S'person'
p2651
sg7
(lp2652
I368
aI224
aI407
aI312
asg9
I0
sa(dp2653
g5
S'person'
p2654
sg7
(lp2655
I98
aI207
aI143
aI310
asg9
I0
sasS'kaistset11-V000-I01109'
p2656
(lp2657
(dp2658
g5
S'person'
p2659
sg7
(lp2660
I19
aI237
aI82
aI436
asg9
I0
sa(dp2661
g5
S'person'
p2662
sg7
(lp2663
I376
aI228
aI407
aI308
asg9
I0
sasS'kaistset07-V002-I00449'
p2664
(lp2665
(dp2666
g5
S'person'
p2667
sg7
(lp2668
I586
aI209
aI614
aI264
asg9
I0
sasS'kaistset08-V002-I00269'
p2669
(lp2670
(dp2671
g5
S'person'
p2672
sg7
(lp2673
I567
aI209
aI598
aI301
asg9
I0
sa(dp2674
g5
S'person'
p2675
sg7
(lp2676
I108
aI215
aI146
aI275
asg9
I0
sa(dp2677
g5
S'person'
p2678
sg7
(lp2679
I95
aI212
aI131
aI276
asg9
I0
sasS'kaistset06-V004-I02129'
p2680
(lp2681
(dp2682
g5
S'person'
p2683
sg7
(lp2684
I527
aI211
aI560
aI290
asg9
I0
sasS'kaistset08-V002-I00869'
p2685
(lp2686
(dp2687
g5
S'person'
p2688
sg7
(lp2689
I214
aI214
aI241
aI287
asg9
I0
sasS'kaistset09-V000-I01109'
p2690
(lp2691
(dp2692
g5
S'person'
p2693
sg7
(lp2694
I470
aI233
aI528
aI357
asg9
I0
sa(dp2695
g5
S'person'
p2696
sg7
(lp2697
I588
aI243
aI630
aI355
asg9
I0
sa(dp2698
g5
S'person'
p2699
sg7
(lp2700
I538
aI235
aI566
aI294
asg9
I0
sasS'kaistset06-V004-I01619'
p2701
(lp2702
(dp2703
g5
S'person'
p2704
sg7
(lp2705
I226
aI210
aI254
aI273
asg9
I0
sasS'kaistset11-V001-I00359'
p2706
(lp2707
(dp2708
g5
S'person'
p2709
sg7
(lp2710
I514
aI215
aI559
aI315
asg9
I0
sasS'kaistset08-V001-I00599'
p2711
(lp2712
(dp2713
g5
S'person'
p2714
sg7
(lp2715
I492
aI208
aI520
aI268
asg9
I0
sasS'kaistset08-V001-I00269'
p2716
(lp2717
(dp2718
g5
S'person'
p2719
sg7
(lp2720
I492
aI217
aI528
aI310
asg9
I0
sasS'kaistset08-V000-I01589'
p2721
(lp2722
(dp2723
g5
S'person'
p2724
sg7
(lp2725
I283
aI213
aI317
aI305
asg9
I0
sa(dp2726
g5
S'person'
p2727
sg7
(lp2728
I302
aI214
aI339
aI307
asg9
I0
sasS'kaistset11-V000-I00329'
p2729
(lp2730
(dp2731
g5
S'person'
p2732
sg7
(lp2733
I587
aI238
aI640
aI447
asg9
I0
sa(dp2734
g5
S'person'
p2735
sg7
(lp2736
I539
aI257
aI600
aI447
asg9
I0
sa(dp2737
g5
S'person'
p2738
sg7
(lp2739
I29
aI236
aI62
aI357
asg9
I0
sa(dp2740
g5
S'person'
p2741
sg7
(lp2742
I111
aI231
aI149
aI322
asg9
I0
sa(dp2743
g5
S'person'
p2744
sg7
(lp2745
I150
aI221
aI175
aI327
asg9
I0
sa(dp2746
g5
S'person'
p2747
sg7
(lp2748
I194
aI214
aI233
aI328
asg9
I0
sasS'kaistset08-V000-I00449'
p2749
(lp2750
(dp2751
g5
S'person'
p2752
sg7
(lp2753
I389
aI215
aI427
aI300
asg9
I0
sasS'kaistset08-V001-I00689'
p2754
(lp2755
(dp2756
g5
S'person'
p2757
sg7
(lp2758
I404
aI201
aI449
aI314
asg9
I0
sa(dp2759
g5
S'person'
p2760
sg7
(lp2761
I336
aI210
aI370
aI267
asg9
I0
sasS'kaistset06-V001-I00539'
p2762
(lp2763
(dp2764
g5
S'person'
p2765
sg7
(lp2766
I211
aI213
aI250
aI306
asg9
I0
sa(dp2767
g5
S'person'
p2768
sg7
(lp2769
I194
aI220
aI230
aI302
asg9
I0
sa(dp2770
g5
S'person'
p2771
sg7
(lp2772
I97
aI216
aI146
aI315
asg9
I0
sa(dp2773
g5
S'person'
p2774
sg7
(lp2775
I161
aI214
aI198
aI313
asg9
I0
sa(dp2776
g5
S'person'
p2777
sg7
(lp2778
I124
aI210
aI158
aI318
asg9
I0
sa(dp2779
g5
S'person'
p2780
sg7
(lp2781
I471
aI230
aI527
aI401
asg9
I0
sasS'kaistset08-V001-I00869'
p2782
(lp2783
(dp2784
g5
S'person'
p2785
sg7
(lp2786
I578
aI191
aI619
aI278
asg9
I0
sasS'kaistset10-V000-I01139'
p2787
(lp2788
(dp2789
g5
S'person'
p2790
sg7
(lp2791
I478
aI214
aI503
aI291
asg9
I0
sasS'kaistset08-V000-I02339'
p2792
(lp2793
(dp2794
g5
S'person'
p2795
sg7
(lp2796
I55
aI215
aI109
aI348
asg9
I0
sa(dp2797
g5
S'person'
p2798
sg7
(lp2799
I19
aI214
aI67
aI354
asg9
I0
sa(dp2800
g5
S'person'
p2801
sg7
(lp2802
I363
aI216
aI394
aI294
asg9
I0
sasS'kaistset07-V001-I03749'
p2803
(lp2804
(dp2805
g5
S'person'
p2806
sg7
(lp2807
I462
aI217
aI499
aI284
asg9
I0
sasS'kaistset08-V002-I02489'
p2808
(lp2809
(dp2810
g5
S'person'
p2811
sg7
(lp2812
I490
aI213
aI517
aI278
asg9
I0
sasS'kaistset08-V001-I00299'
p2813
(lp2814
(dp2815
g5
S'person'
p2816
sg7
(lp2817
I348
aI220
aI390
aI325
asg9
I0
sasS'kaistset06-V003-I00539'
p2818
(lp2819
(dp2820
g5
S'person'
p2821
sg7
(lp2822
I616
aI190
aI639
aI266
asg9
I0
sa(dp2823
g5
S'person'
p2824
sg7
(lp2825
I584
aI190
aI610
aI273
asg9
I0
sasS'kaistset06-V001-I00449'
p2826
(lp2827
(dp2828
g5
S'person'
p2829
sg7
(lp2830
I309
aI210
aI362
aI319
asg9
I0
sa(dp2831
g5
S'person'
p2832
sg7
(lp2833
I361
aI214
aI403
aI312
asg9
I0
sa(dp2834
g5
S'person'
p2835
sg7
(lp2836
I73
aI212
aI115
aI291
asg9
I0
sa(dp2837
g5
S'person'
p2838
sg7
(lp2839
I121
aI212
aI154
aI287
asg9
I0
sa(dp2840
g5
S'person'
p2841
sg7
(lp2842
I94
aI216
aI126
aI288
asg9
I0
sa(dp2843
g5
S'person'
p2844
sg7
(lp2845
I437
aI224
aI472
aI288
asg9
I0
sa(dp2846
g5
S'person'
p2847
sg7
(lp2848
I190
aI215
aI219
aI284
asg9
I0
sa(dp2849
g5
S'person'
p2850
sg7
(lp2851
I1
aI187
aI27
aI261
asg9
I0
sasS'kaistset08-V000-I01769'
p2852
(lp2853
(dp2854
g5
S'person'
p2855
sg7
(lp2856
I387
aI214
aI416
aI291
asg9
I0
sa(dp2857
g5
S'person'
p2858
sg7
(lp2859
I365
aI216
aI388
aI283
asg9
I0
sasS'kaistset08-V000-I02099'
p2860
(lp2861
(dp2862
g5
S'person'
p2863
sg7
(lp2864
I274
aI203
aI310
aI314
asg9
I0
sa(dp2865
g5
S'person'
p2866
sg7
(lp2867
I299
aI210
aI331
aI317
asg9
I0
sa(dp2868
g5
S'person'
p2869
sg7
(lp2870
I580
aI216
aI641
aI490
asg9
I0
sasS'kaistset08-V000-I01889'
p2871
(lp2872
(dp2873
g5
S'person'
p2874
sg7
(lp2875
I24
aI183
aI72
aI320
asg9
I0
sa(dp2876
g5
S'person'
p2877
sg7
(lp2878
I190
aI200
aI241
aI347
asg9
I0
sa(dp2879
g5
S'person'
p2880
sg7
(lp2881
I481
aI216
aI528
aI350
asg9
I0
sa(dp2882
g5
S'person'
p2883
sg7
(lp2884
I374
aI222
aI407
aI326
asg9
I0
sasS'kaistset09-V000-I01199'
p2885
(lp2886
(dp2887
g5
S'person'
p2888
sg7
(lp2889
I447
aI228
aI500
aI352
asg9
I0
sa(dp2890
g5
S'person'
p2891
sg7
(lp2892
I237
aI205
aI270
aI284
asg9
I0
sa(dp2893
g5
S'person'
p2894
sg7
(lp2895
I257
aI209
aI305
aI294
asg9
I0
sasS'kaistset11-V000-I00119'
p2896
(lp2897
(dp2898
g5
S'person'
p2899
sg7
(lp2900
I136
aI225
aI170
aI328
asg9
I0
sa(dp2901
g5
S'person'
p2902
sg7
(lp2903
I420
aI225
aI445
aI291
asg9
I0
sasS'kaistset08-V002-I01349'
p2904
(lp2905
(dp2906
g5
S'person'
p2907
sg7
(lp2908
I512
aI200
aI543
aI265
asg9
I0
sa(dp2909
g5
S'person'
p2910
sg7
(lp2911
I86
aI201
aI120
aI265
asg9
I0
sasS'kaistset07-V002-I00839'
p2912
(lp2913
(dp2914
g5
S'person'
p2915
sg7
(lp2916
I619
aI221
aI640
aI279
asg9
I0
sasS'kaistset08-V000-I01349'
p2917
(lp2918
(dp2919
g5
S'person'
p2920
sg7
(lp2921
I399
aI238
aI434
aI324
asg9
I0
sa(dp2922
g5
S'person'
p2923
sg7
(lp2924
I228
aI207
aI253
aI269
asg9
I0
sasS'kaistset10-V000-I03539'
p2925
(lp2926
(dp2927
g5
S'person'
p2928
sg7
(lp2929
I422
aI205
aI451
aI284
asg9
I0
sa(dp2930
g5
S'person'
p2931
sg7
(lp2932
I390
aI206
aI423
aI282
asg9
I0
sasS'kaistset10-V000-I01229'
p2933
(lp2934
(dp2935
g5
S'person'
p2936
sg7
(lp2937
I446
aI216
aI468
aI275
asg9
I0
sasS'kaistset07-V001-I02699'
p2938
(lp2939
(dp2940
g5
S'person'
p2941
sg7
(lp2942
I533
aI194
aI569
aI272
asg9
I0
sasS'kaistset08-V000-I01169'
p2943
(lp2944
(dp2945
g5
S'person'
p2946
sg7
(lp2947
I316
aI211
aI355
aI319
asg9
I0
sa(dp2948
g5
S'person'
p2949
sg7
(lp2950
I373
aI223
aI396
aI280
asg9
I0
sa(dp2951
g5
S'person'
p2952
sg7
(lp2953
I294
aI210
aI327
aI322
asg9
I0
sa(dp2954
g5
S'person'
p2955
sg7
(lp2956
I593
aI228
aI640
aI381
asg9
I0
sasS'kaistset09-V000-I02549'
p2957
(lp2958
(dp2959
g5
S'person'
p2960
sg7
(lp2961
I468
aI197
aI496
aI274
asg9
I0
sa(dp2962
g5
S'person'
p2963
sg7
(lp2964
I495
aI194
aI524
aI284
asg9
I0
sasS'kaistset06-V003-I00059'
p2965
(lp2966
(dp2967
g5
S'person'
p2968
sg7
(lp2969
I585
aI239
aI613
aI313
asg9
I0
sasS'kaistset09-V000-I00869'
p2970
(lp2971
(dp2972
g5
S'person'
p2973
sg7
(lp2974
I19
aI214
aI39
aI271
asg9
I0
sasS'kaistset06-V003-I03029'
p2975
(lp2976
(dp2977
g5
S'person'
p2978
sg7
(lp2979
I488
aI225
aI515
aI304
asg9
I0
sasS'kaistset08-V001-I02759'
p2980
(lp2981
(dp2982
g5
S'person'
p2983
sg7
(lp2984
I79
aI218
aI115
aI290
asg9
I0
sa(dp2985
g5
S'person'
p2986
sg7
(lp2987
I453
aI226
aI543
aI374
asg9
I0
sa(dp2988
g5
S'person'
p2989
sg7
(lp2990
I204
aI226
aI234
aI281
asg9
I0
sa(dp2991
g5
S'person'
p2992
sg7
(lp2993
I98
aI219
aI137
aI296
asg9
I0
sa(dp2994
g5
S'person'
p2995
sg7
(lp2996
I241
aI220
aI280
aI281
asg9
I0
sasS'kaistset08-V001-I02819'
p2997
(lp2998
(dp2999
g5
S'person'
p3000
sg7
(lp3001
I123
aI222
aI153
aI277
asg9
I0
sa(dp3002
g5
S'person'
p3003
sg7
(lp3004
I26
aI220
aI53
aI282
asg9
I0
sa(dp3005
g5
S'person'
p3006
sg7
(lp3007
I43
aI221
aI82
aI283
asg9
I0
sasS'kaistset08-V000-I02249'
p3008
(lp3009
(dp3010
g5
S'person'
p3011
sg7
(lp3012
I238
aI207
aI273
aI281
asg9
I0
sasS'kaistset06-V004-I01229'
p3013
(lp3014
(dp3015
g5
S'person'
p3016
sg7
(lp3017
I541
aI182
aI571
aI254
asg9
I0
sasS'kaistset08-V002-I00749'
p3018
(lp3019
(dp3020
g5
S'person'
p3021
sg7
(lp3022
I235
aI216
aI264
aI280
asg9
I0
sasS'kaistset11-V001-I00839'
p3023
(lp3024
(dp3025
g5
S'person'
p3026
sg7
(lp3027
I522
aI216
aI562
aI292
asg9
I0
sasS'kaistset08-V001-I02669'
p3028
(lp3029
(dp3030
g5
S'person'
p3031
sg7
(lp3032
I84
aI221
aI114
aI293
asg9
I0
sa(dp3033
g5
S'person'
p3034
sg7
(lp3035
I121
aI212
aI154
aI292
asg9
I0
sa(dp3036
g5
S'person'
p3037
sg7
(lp3038
I385
aI228
aI441
aI355
asg9
I0
sa(dp3039
g5
S'person'
p3040
sg7
(lp3041
I174
aI223
aI222
aI312
asg9
I0
sa(dp3042
g5
S'person'
p3043
sg7
(lp3044
I273
aI213
aI311
aI286
asg9
I0
sa(dp3045
g5
S'person'
p3046
sg7
(lp3047
I337
aI223
aI409
aI368
asg9
I0
sa(dp3048
g5
S'person'
p3049
sg7
(lp3050
I220
aI217
aI326
aI378
asg9
I0
sa(dp3051
g5
S'person'
p3052
sg7
(lp3053
I372
aI227
aI402
aI282
asg9
I0
sa(dp3054
g5
S'person'
p3055
sg7
(lp3056
I194
aI223
aI233
aI314
asg9
I0
sasS'kaistset08-V001-I02939'
p3057
(lp3058
(dp3059
g5
S'person'
p3060
sg7
(lp3061
I2
aI224
aI28
aI279
asg9
I0
sasS'kaistset07-V000-I00419'
p3062
(lp3063
(dp3064
g5
S'person'
p3065
sg7
(lp3066
I532
aI222
aI567
aI302
asg9
I0
sa(dp3067
g5
S'person'
p3068
sg7
(lp3069
I564
aI220
aI607
aI305
asg9
I0
sasS'kaistset08-V000-I01649'
p3070
(lp3071
(dp3072
g5
S'person'
p3073
sg7
(lp3074
I330
aI221
aI391
aI387
asg9
I0
sa(dp3075
g5
S'person'
p3076
sg7
(lp3077
I399
aI223
aI456
aI395
asg9
I0
sa(dp3078
g5
S'person'
p3079
sg7
(lp3080
I370
aI220
aI416
aI391
asg9
I0
sasS'kaistset10-V001-I00269'
p3081
(lp3082
(dp3083
g5
S'person'
p3084
sg7
(lp3085
I576
aI211
aI597
aI270
asg9
I0
sasS'kaistset10-V000-I01769'
p3086
(lp3087
(dp3088
g5
S'person'
p3089
sg7
(lp3090
I520
aI225
aI542
aI299
asg9
I0
sasS'kaistset08-V000-I01019'
p3091
(lp3092
(dp3093
g5
S'person'
p3094
sg7
(lp3095
I69
aI208
aI118
aI354
asg9
I0
sa(dp3096
g5
S'person'
p3097
sg7
(lp3098
I477
aI221
aI537
aI410
asg9
I0
sa(dp3099
g5
S'person'
p3100
sg7
(lp3101
I107
aI216
aI147
aI357
asg9
I0
sasS'kaistset06-V004-I01019'
p3102
(lp3103
(dp3104
g5
S'person'
p3105
sg7
(lp3106
I16
aI211
aI70
aI361
asg9
I0
sasS'kaistset10-V000-I01049'
p3107
(lp3108
(dp3109
g5
S'person'
p3110
sg7
(lp3111
I538
aI219
aI572
aI316
asg9
I0
sasS'kaistset10-V001-I02009'
p3112
(lp3113
(dp3114
g5
S'person'
p3115
sg7
(lp3116
I495
aI218
aI523
aI280
asg9
I0
sasS'kaistset11-V000-I01229'
p3117
(lp3118
(dp3119
g5
S'person'
p3120
sg7
(lp3121
I387
aI233
aI422
aI324
asg9
I0
sa(dp3122
g5
S'person'
p3123
sg7
(lp3124
I414
aI222
aI439
aI315
asg9
I0
sasS'kaistset11-V000-I01439'
p3125
(lp3126
(dp3127
g5
S'person'
p3128
sg7
(lp3129
I3
aI241
aI94
aI501
asg9
I0
sasS'kaistset11-V000-I00929'
p3130
(lp3131
(dp3132
g5
S'person'
p3133
sg7
(lp3134
I475
aI227
aI521
aI344
asg9
I0
sa(dp3135
g5
S'person'
p3136
sg7
(lp3137
I413
aI225
aI443
aI303
asg9
I0
sasS'kaistset06-V003-I03539'
p3138
(lp3139
(dp3140
g5
S'person'
p3141
sg7
(lp3142
I534
aI229
aI561
aI301
asg9
I0
sasS'kaistset06-V000-I00929'
p3143
(lp3144
(dp3145
g5
S'person'
p3146
sg7
(lp3147
I537
aI216
aI561
aI280
asg9
I0
sasS'kaistset08-V002-I00419'
p3148
(lp3149
(dp3150
g5
S'person'
p3151
sg7
(lp3152
I69
aI220
aI105
aI312
asg9
I0
sa(dp3153
g5
S'person'
p3154
sg7
(lp3155
I445
aI222
aI493
aI317
asg9
I0
sa(dp3156
g5
S'person'
p3157
sg7
(lp3158
I35
aI216
aI102
aI326
asg9
I0
sa(dp3159
g5
S'person'
p3160
sg7
(lp3161
I200
aI218
aI250
aI313
asg9
I0
sa(dp3162
g5
S'person'
p3163
sg7
(lp3164
I144
aI218
aI193
aI306
asg9
I0
sasS'kaistset08-V001-I00719'
p3165
(lp3166
(dp3167
g5
S'person'
p3168
sg7
(lp3169
I350
aI196
aI413
aI327
asg9
I0
sa(dp3170
g5
S'person'
p3171
sg7
(lp3172
I471
aI205
aI510
aI268
asg9
I0
sasS'kaistset07-V000-I01529'
p3173
(lp3174
(dp3175
g5
S'person'
p3176
sg7
(lp3177
I430
aI212
aI455
aI268
asg9
I0
sasS'kaistset11-V000-I01079'
p3178
(lp3179
(dp3180
g5
S'person'
p3181
sg7
(lp3182
I52
aI217
aI101
aI371
asg9
I0
sa(dp3183
g5
S'person'
p3184
sg7
(lp3185
I97
aI237
aI142
aI369
asg9
I0
sasS'kaistset08-V000-I01949'
p3186
(lp3187
(dp3188
g5
S'person'
p3189
sg7
(lp3190
I348
aI203
aI374
aI269
asg9
I0
sa(dp3191
g5
S'person'
p3192
sg7
(lp3193
I236
aI213
aI300
aI371
asg9
I0
sa(dp3194
g5
S'person'
p3195
sg7
(lp3196
I193
aI204
aI249
aI382
asg9
I0
sa(dp3197
g5
S'person'
p3198
sg7
(lp3199
I369
aI202
aI395
aI269
asg9
I0
sasS'kaistset06-V003-I01979'
p3200
(lp3201
(dp3202
g5
S'person'
p3203
sg7
(lp3204
I115
aI217
aI139
aI275
asg9
I0
sasS'kaistset07-V000-I01649'
p3205
(lp3206
(dp3207
g5
S'person'
p3208
sg7
(lp3209
I480
aI216
aI506
aI292
asg9
I0
sas.